(dp0
S'filter_period_midpoint_time'
p1
NsS'differential_power'
p2
NsS'target_temperature'
p3
cpint
_build_quantity
p4
(F298.15
ccopy_reg
_reconstructor
p5
(cpint.util
UnitsContainer
p6
c__builtin__
object
p7
Ntp8
Rp9
(dp10
V_d
p11
g5
(cpint.util
udict
p12
c__builtin__
dict
p13
(dp14
Vkelvin
p15
F1.0
stp16
Rp17
sV_hash
p18
I6369073192305681123
sbtp19
Rp20
sS'stir_rate'
p21
g4
(I1000
g5
(g6
g7
Ntp22
Rp23
(dp24
g11
g5
(g12
g13
(dp25
Vrevolutions_per_minute
p26
F1.0
stp27
Rp28
sg18
I-9069124146733934765
sbtp29
Rp30
sS'temperature'
p31
(lp32
sS'number_of_injections'
p33
I23
sS'instrument'
p34
g5
(cbitc.instruments
Instrument
p35
g7
Ntp36
Rp37
(dp38
S'V0'
p39
g4
(F0.2043
g5
(g6
g7
Ntp40
Rp41
(dp42
g11
g5
(g12
g13
(dp43
Vmilliliter
p44
F1.0
stp45
Rp46
sg18
I-2568644798021485481
sbtp47
Rp48
sS'V_correction'
p49
F0.0
sS'description'
p50
S'ITC200_05.11.485\r\n'
p51
sbsS'reference_power'
p52
g4
(F5.6
g5
(g6
g7
Ntp53
Rp54
(dp55
g11
g5
(g12
g13
(dp56
Vmicrocal
p57
F1.0
sVsecond
p58
F-1.0
stp59
Rp60
sg18
I653647005797199061
sbtp61
Rp62
sS'cell_volume'
p63
g4
(F0.2043
g5
(g6
g7
Ntp64
Rp65
(dp66
g11
g5
(g12
g13
(dp67
g44
F1.0
stp68
Rp69
sg18
I-2568644798021485481
sbtp70
Rp71
sS'injections'
p72
(lp73
g5
(cbitc.experiments
Injection
p74
g7
Ntp75
Rp76
(dp77
S'titrant'
p78
g4
(cnumpy.core.multiarray
_reconstruct
p79
(cnumpy
ndarray
p80
(I0
tp81
S'b'
p82
tp83
Rp84
(I1
(I1
tp85
cnumpy
dtype
p86
(S'f8'
p87
I0
I1
tp88
Rp89
(I3
S'<'
p90
NNNI-1
I-1
I0
tp91
bI00
S'w\x83\r\xf4\xf5!\xa4>'
p92
tp93
bg5
(g6
g7
Ntp94
Rp95
(dp96
g11
g5
(g12
g13
(dp97
Vmillimole
p98
F1.0
stp99
Rp100
sg18
I-3231288464854266307
sbtp101
Rp102
sS'spacing'
p103
g4
(F180.0
g5
(g6
g7
Ntp104
Rp105
(dp106
g11
g5
(g12
g13
(dp107
g58
F1.0
stp108
Rp109
sg18
I-8637397557623547456
sbtp110
Rp111
sS'number'
p112
I1
sS'filter_period'
p113
g4
(F5.0
g5
(g6
g7
Ntp114
Rp115
(dp116
g11
g5
(g12
g13
(dp117
g58
F1.0
stp118
Rp119
sg18
I-8637397557623547456
sbtp120
Rp121
sS'volume'
p122
g4
(F1.5
g5
(g6
g7
Ntp123
Rp124
(dp125
g11
g5
(g12
g13
(dp126
Vmicroliter
p127
F1.0
stp128
Rp129
sg18
I-4606935264605141194
sbtp130
Rp131
sS'titrant_concentration'
p132
g4
(g79
(g80
(I0
tp133
g82
tp134
Rp135
(I1
(tg89
I00
S'\x9a\x99\x99\x99\x99\x99\xd9?'
p136
tp137
bg5
(g6
g7
Ntp138
Rp139
(dp140
g11
g5
(g12
g13
(dp141
Vliter
p142
F-1.0
sg98
F1.0
stp143
Rp144
sg18
I-2553330628009308297
sbtp145
Rp146
sS'duration'
p147
g4
(F3.0
g5
(g6
g7
Ntp148
Rp149
(dp150
g11
g5
(g12
g13
(dp151
g58
F1.0
stp152
Rp153
sg18
I-8637397557623547456
sbtp154
Rp155
sS'evolved_heat'
p156
g4
(cnumpy.core.multiarray
scalar
p157
(g89
S'\xb2h:;\x19\x9c\x08\xc0'
p158
tp159
Rp160
g5
(g6
g7
Ntp161
Rp162
(dp163
g11
g5
(g12
g13
(dp164
g57
F1.0
stp165
Rp166
sg18
I4447981639521838742
sbtp167
Rp168
sbag5
(g74
g7
Ntp169
Rp170
(dp171
g78
g4
(g79
(g80
(I0
tp172
g82
tp173
Rp174
(I1
(I1
tp175
g89
I00
S'w\x83\r\xf4\xf5!\xa4>'
p176
tp177
bg95
tp178
Rp179
sg103
g4
(F180.0
g5
(g6
g7
Ntp180
Rp181
(dp182
g11
g5
(g12
g13
(dp183
g58
F1.0
stp184
Rp185
sg18
I-8637397557623547456
sbtp186
Rp187
sg112
I2
sg113
g4
(F5.0
g5
(g6
g7
Ntp188
Rp189
(dp190
g11
g5
(g12
g13
(dp191
g58
F1.0
stp192
Rp193
sg18
I-8637397557623547456
sbtp194
Rp195
sg122
g4
(F1.5
g5
(g6
g7
Ntp196
Rp197
(dp198
g11
g5
(g12
g13
(dp199
g127
F1.0
stp200
Rp201
sg18
I-4606935264605141194
sbtp202
Rp203
sg132
g4
(g79
(g80
(I0
tp204
g82
tp205
Rp206
(I1
(tg89
I00
S'\x9a\x99\x99\x99\x99\x99\xd9?'
p207
tp208
bg5
(g6
g7
Ntp209
Rp210
(dp211
g11
g5
(g12
g13
(dp212
g142
F-1.0
sg98
F1.0
stp213
Rp214
sg18
I-2553330628009308297
sbtp215
Rp216
sg147
g4
(F3.0
g5
(g6
g7
Ntp217
Rp218
(dp219
g11
g5
(g12
g13
(dp220
g58
F1.0
stp221
Rp222
sg18
I-8637397557623547456
sbtp223
Rp224
sg156
g4
(g157
(g89
S'\xa7?\xfb\x91"\xf2\x08\xc0'
p225
tp226
Rp227
g162
tp228
Rp229
sbag5
(g74
g7
Ntp230
Rp231
(dp232
g78
g4
(g79
(g80
(I0
tp233
g82
tp234
Rp235
(I1
(I1
tp236
g89
I00
S'w\x83\r\xf4\xf5!\xa4>'
p237
tp238
bg95
tp239
Rp240
sg103
g4
(F180.0
g5
(g6
g7
Ntp241
Rp242
(dp243
g11
g5
(g12
g13
(dp244
g58
F1.0
stp245
Rp246
sg18
I-8637397557623547456
sbtp247
Rp248
sg112
I3
sg113
g4
(F5.0
g5
(g6
g7
Ntp249
Rp250
(dp251
g11
g5
(g12
g13
(dp252
g58
F1.0
stp253
Rp254
sg18
I-8637397557623547456
sbtp255
Rp256
sg122
g4
(F1.5
g5
(g6
g7
Ntp257
Rp258
(dp259
g11
g5
(g12
g13
(dp260
g127
F1.0
stp261
Rp262
sg18
I-4606935264605141194
sbtp263
Rp264
sg132
g4
(g79
(g80
(I0
tp265
g82
tp266
Rp267
(I1
(tg89
I00
S'\x9a\x99\x99\x99\x99\x99\xd9?'
p268
tp269
bg5
(g6
g7
Ntp270
Rp271
(dp272
g11
g5
(g12
g13
(dp273
g142
F-1.0
sg98
F1.0
stp274
Rp275
sg18
I-2553330628009308297
sbtp276
Rp277
sg147
g4
(F3.0
g5
(g6
g7
Ntp278
Rp279
(dp280
g11
g5
(g12
g13
(dp281
g58
F1.0
stp282
Rp283
sg18
I-8637397557623547456
sbtp284
Rp285
sg156
g4
(g157
(g89
S'\x901w-!\xdf\x07\xc0'
p286
tp287
Rp288
g162
tp289
Rp290
sbag5
(g74
g7
Ntp291
Rp292
(dp293
g78
g4
(g79
(g80
(I0
tp294
g82
tp295
Rp296
(I1
(I1
tp297
g89
I00
S'w\x83\r\xf4\xf5!\xa4>'
p298
tp299
bg95
tp300
Rp301
sg103
g4
(F180.0
g5
(g6
g7
Ntp302
Rp303
(dp304
g11
g5
(g12
g13
(dp305
g58
F1.0
stp306
Rp307
sg18
I-8637397557623547456
sbtp308
Rp309
sg112
I4
sg113
g4
(F5.0
g5
(g6
g7
Ntp310
Rp311
(dp312
g11
g5
(g12
g13
(dp313
g58
F1.0
stp314
Rp315
sg18
I-8637397557623547456
sbtp316
Rp317
sg122
g4
(F1.5
g5
(g6
g7
Ntp318
Rp319
(dp320
g11
g5
(g12
g13
(dp321
g127
F1.0
stp322
Rp323
sg18
I-4606935264605141194
sbtp324
Rp325
sg132
g4
(g79
(g80
(I0
tp326
g82
tp327
Rp328
(I1
(tg89
I00
S'\x9a\x99\x99\x99\x99\x99\xd9?'
p329
tp330
bg5
(g6
g7
Ntp331
Rp332
(dp333
g11
g5
(g12
g13
(dp334
g142
F-1.0
sg98
F1.0
stp335
Rp336
sg18
I-2553330628009308297
sbtp337
Rp338
sg147
g4
(F3.0
g5
(g6
g7
Ntp339
Rp340
(dp341
g11
g5
(g12
g13
(dp342
g58
F1.0
stp343
Rp344
sg18
I-8637397557623547456
sbtp345
Rp346
sg156
g4
(g157
(g89
S'\x19\x90\xbd\xde\xfd\xf1\x08\xc0'
p347
tp348
Rp349
g162
tp350
Rp351
sbag5
(g74
g7
Ntp352
Rp353
(dp354
g78
g4
(g79
(g80
(I0
tp355
g82
tp356
Rp357
(I1
(I1
tp358
g89
I00
S'w\x83\r\xf4\xf5!\xa4>'
p359
tp360
bg95
tp361
Rp362
sg103
g4
(F180.0
g5
(g6
g7
Ntp363
Rp364
(dp365
g11
g5
(g12
g13
(dp366
g58
F1.0
stp367
Rp368
sg18
I-8637397557623547456
sbtp369
Rp370
sg112
I5
sg113
g4
(F5.0
g5
(g6
g7
Ntp371
Rp372
(dp373
g11
g5
(g12
g13
(dp374
g58
F1.0
stp375
Rp376
sg18
I-8637397557623547456
sbtp377
Rp378
sg122
g4
(F1.5
g5
(g6
g7
Ntp379
Rp380
(dp381
g11
g5
(g12
g13
(dp382
g127
F1.0
stp383
Rp384
sg18
I-4606935264605141194
sbtp385
Rp386
sg132
g4
(g79
(g80
(I0
tp387
g82
tp388
Rp389
(I1
(tg89
I00
S'\x9a\x99\x99\x99\x99\x99\xd9?'
p390
tp391
bg5
(g6
g7
Ntp392
Rp393
(dp394
g11
g5
(g12
g13
(dp395
g142
F-1.0
sg98
F1.0
stp396
Rp397
sg18
I-2553330628009308297
sbtp398
Rp399
sg147
g4
(F3.0
g5
(g6
g7
Ntp400
Rp401
(dp402
g11
g5
(g12
g13
(dp403
g58
F1.0
stp404
Rp405
sg18
I-8637397557623547456
sbtp406
Rp407
sg156
g4
(g157
(g89
S'\xb6\xf8\x14\x00\xe3\x99\x08\xc0'
p408
tp409
Rp410
g162
tp411
Rp412
sbag5
(g74
g7
Ntp413
Rp414
(dp415
g78
g4
(g79
(g80
(I0
tp416
g82
tp417
Rp418
(I1
(I1
tp419
g89
I00
S'w\x83\r\xf4\xf5!\xa4>'
p420
tp421
bg95
tp422
Rp423
sg103
g4
(F180.0
g5
(g6
g7
Ntp424
Rp425
(dp426
g11
g5
(g12
g13
(dp427
g58
F1.0
stp428
Rp429
sg18
I-8637397557623547456
sbtp430
Rp431
sg112
I6
sg113
g4
(F5.0
g5
(g6
g7
Ntp432
Rp433
(dp434
g11
g5
(g12
g13
(dp435
g58
F1.0
stp436
Rp437
sg18
I-8637397557623547456
sbtp438
Rp439
sg122
g4
(F1.5
g5
(g6
g7
Ntp440
Rp441
(dp442
g11
g5
(g12
g13
(dp443
g127
F1.0
stp444
Rp445
sg18
I-4606935264605141194
sbtp446
Rp447
sg132
g4
(g79
(g80
(I0
tp448
g82
tp449
Rp450
(I1
(tg89
I00
S'\x9a\x99\x99\x99\x99\x99\xd9?'
p451
tp452
bg5
(g6
g7
Ntp453
Rp454
(dp455
g11
g5
(g12
g13
(dp456
g142
F-1.0
sg98
F1.0
stp457
Rp458
sg18
I-2553330628009308297
sbtp459
Rp460
sg147
g4
(F3.0
g5
(g6
g7
Ntp461
Rp462
(dp463
g11
g5
(g12
g13
(dp464
g58
F1.0
stp465
Rp466
sg18
I-8637397557623547456
sbtp467
Rp468
sg156
g4
(g157
(g89
S'p\x94\xbc:\xc7\x80\x08\xc0'
p469
tp470
Rp471
g162
tp472
Rp473
sbag5
(g74
g7
Ntp474
Rp475
(dp476
g78
g4
(g79
(g80
(I0
tp477
g82
tp478
Rp479
(I1
(I1
tp480
g89
I00
S'w\x83\r\xf4\xf5!\xa4>'
p481
tp482
bg95
tp483
Rp484
sg103
g4
(F180.0
g5
(g6
g7
Ntp485
Rp486
(dp487
g11
g5
(g12
g13
(dp488
g58
F1.0
stp489
Rp490
sg18
I-8637397557623547456
sbtp491
Rp492
sg112
I7
sg113
g4
(F5.0
g5
(g6
g7
Ntp493
Rp494
(dp495
g11
g5
(g12
g13
(dp496
g58
F1.0
stp497
Rp498
sg18
I-8637397557623547456
sbtp499
Rp500
sg122
g4
(F1.5
g5
(g6
g7
Ntp501
Rp502
(dp503
g11
g5
(g12
g13
(dp504
g127
F1.0
stp505
Rp506
sg18
I-4606935264605141194
sbtp507
Rp508
sg132
g4
(g79
(g80
(I0
tp509
g82
tp510
Rp511
(I1
(tg89
I00
S'\x9a\x99\x99\x99\x99\x99\xd9?'
p512
tp513
bg5
(g6
g7
Ntp514
Rp515
(dp516
g11
g5
(g12
g13
(dp517
g142
F-1.0
sg98
F1.0
stp518
Rp519
sg18
I-2553330628009308297
sbtp520
Rp521
sg147
g4
(F3.0
g5
(g6
g7
Ntp522
Rp523
(dp524
g11
g5
(g12
g13
(dp525
g58
F1.0
stp526
Rp527
sg18
I-8637397557623547456
sbtp528
Rp529
sg156
g4
(g157
(g89
S"\x9d\x0c\x8e\x92W'\x07\xc0"
p530
tp531
Rp532
g162
tp533
Rp534
sbag5
(g74
g7
Ntp535
Rp536
(dp537
g78
g4
(g79
(g80
(I0
tp538
g82
tp539
Rp540
(I1
(I1
tp541
g89
I00
S'w\x83\r\xf4\xf5!\xa4>'
p542
tp543
bg95
tp544
Rp545
sg103
g4
(F180.0
g5
(g6
g7
Ntp546
Rp547
(dp548
g11
g5
(g12
g13
(dp549
g58
F1.0
stp550
Rp551
sg18
I-8637397557623547456
sbtp552
Rp553
sg112
I8
sg113
g4
(F5.0
g5
(g6
g7
Ntp554
Rp555
(dp556
g11
g5
(g12
g13
(dp557
g58
F1.0
stp558
Rp559
sg18
I-8637397557623547456
sbtp560
Rp561
sg122
g4
(F1.5
g5
(g6
g7
Ntp562
Rp563
(dp564
g11
g5
(g12
g13
(dp565
g127
F1.0
stp566
Rp567
sg18
I-4606935264605141194
sbtp568
Rp569
sg132
g4
(g79
(g80
(I0
tp570
g82
tp571
Rp572
(I1
(tg89
I00
S'\x9a\x99\x99\x99\x99\x99\xd9?'
p573
tp574
bg5
(g6
g7
Ntp575
Rp576
(dp577
g11
g5
(g12
g13
(dp578
g142
F-1.0
sg98
F1.0
stp579
Rp580
sg18
I-2553330628009308297
sbtp581
Rp582
sg147
g4
(F3.0
g5
(g6
g7
Ntp583
Rp584
(dp585
g11
g5
(g12
g13
(dp586
g58
F1.0
stp587
Rp588
sg18
I-8637397557623547456
sbtp589
Rp590
sg156
g4
(g157
(g89
S'\x80\x0e\xf3\xe5\x05X\x07\xc0'
p591
tp592
Rp593
g162
tp594
Rp595
sbag5
(g74
g7
Ntp596
Rp597
(dp598
g78
g4
(g79
(g80
(I0
tp599
g82
tp600
Rp601
(I1
(I1
tp602
g89
I00
S'w\x83\r\xf4\xf5!\xa4>'
p603
tp604
bg95
tp605
Rp606
sg103
g4
(F180.0
g5
(g6
g7
Ntp607
Rp608
(dp609
g11
g5
(g12
g13
(dp610
g58
F1.0
stp611
Rp612
sg18
I-8637397557623547456
sbtp613
Rp614
sg112
I9
sg113
g4
(F5.0
g5
(g6
g7
Ntp615
Rp616
(dp617
g11
g5
(g12
g13
(dp618
g58
F1.0
stp619
Rp620
sg18
I-8637397557623547456
sbtp621
Rp622
sg122
g4
(F1.5
g5
(g6
g7
Ntp623
Rp624
(dp625
g11
g5
(g12
g13
(dp626
g127
F1.0
stp627
Rp628
sg18
I-4606935264605141194
sbtp629
Rp630
sg132
g4
(g79
(g80
(I0
tp631
g82
tp632
Rp633
(I1
(tg89
I00
S'\x9a\x99\x99\x99\x99\x99\xd9?'
p634
tp635
bg5
(g6
g7
Ntp636
Rp637
(dp638
g11
g5
(g12
g13
(dp639
g142
F-1.0
sg98
F1.0
stp640
Rp641
sg18
I-2553330628009308297
sbtp642
Rp643
sg147
g4
(F3.0
g5
(g6
g7
Ntp644
Rp645
(dp646
g11
g5
(g12
g13
(dp647
g58
F1.0
stp648
Rp649
sg18
I-8637397557623547456
sbtp650
Rp651
sg156
g4
(g157
(g89
S'\x88\x0c\xabx#\xf3\xff\xbf'
p652
tp653
Rp654
g162
tp655
Rp656
sbag5
(g74
g7
Ntp657
Rp658
(dp659
g78
g4
(g79
(g80
(I0
tp660
g82
tp661
Rp662
(I1
(I1
tp663
g89
I00
S'w\x83\r\xf4\xf5!\xa4>'
p664
tp665
bg95
tp666
Rp667
sg103
g4
(F180.0
g5
(g6
g7
Ntp668
Rp669
(dp670
g11
g5
(g12
g13
(dp671
g58
F1.0
stp672
Rp673
sg18
I-8637397557623547456
sbtp674
Rp675
sg112
I10
sg113
g4
(F5.0
g5
(g6
g7
Ntp676
Rp677
(dp678
g11
g5
(g12
g13
(dp679
g58
F1.0
stp680
Rp681
sg18
I-8637397557623547456
sbtp682
Rp683
sg122
g4
(F1.5
g5
(g6
g7
Ntp684
Rp685
(dp686
g11
g5
(g12
g13
(dp687
g127
F1.0
stp688
Rp689
sg18
I-4606935264605141194
sbtp690
Rp691
sg132
g4
(g79
(g80
(I0
tp692
g82
tp693
Rp694
(I1
(tg89
I00
S'\x9a\x99\x99\x99\x99\x99\xd9?'
p695
tp696
bg5
(g6
g7
Ntp697
Rp698
(dp699
g11
g5
(g12
g13
(dp700
g142
F-1.0
sg98
F1.0
stp701
Rp702
sg18
I-2553330628009308297
sbtp703
Rp704
sg147
g4
(F3.0
g5
(g6
g7
Ntp705
Rp706
(dp707
g11
g5
(g12
g13
(dp708
g58
F1.0
stp709
Rp710
sg18
I-8637397557623547456
sbtp711
Rp712
sg156
g4
(g157
(g89
S'\x92\\\xfeC\xfa\xed\xf1\xbf'
p713
tp714
Rp715
g162
tp716
Rp717
sbag5
(g74
g7
Ntp718
Rp719
(dp720
g78
g4
(g79
(g80
(I0
tp721
g82
tp722
Rp723
(I1
(I1
tp724
g89
I00
S'w\x83\r\xf4\xf5!\xa4>'
p725
tp726
bg95
tp727
Rp728
sg103
g4
(F180.0
g5
(g6
g7
Ntp729
Rp730
(dp731
g11
g5
(g12
g13
(dp732
g58
F1.0
stp733
Rp734
sg18
I-8637397557623547456
sbtp735
Rp736
sg112
I11
sg113
g4
(F5.0
g5
(g6
g7
Ntp737
Rp738
(dp739
g11
g5
(g12
g13
(dp740
g58
F1.0
stp741
Rp742
sg18
I-8637397557623547456
sbtp743
Rp744
sg122
g4
(F1.5
g5
(g6
g7
Ntp745
Rp746
(dp747
g11
g5
(g12
g13
(dp748
g127
F1.0
stp749
Rp750
sg18
I-4606935264605141194
sbtp751
Rp752
sg132
g4
(g79
(g80
(I0
tp753
g82
tp754
Rp755
(I1
(tg89
I00
S'\x9a\x99\x99\x99\x99\x99\xd9?'
p756
tp757
bg5
(g6
g7
Ntp758
Rp759
(dp760
g11
g5
(g12
g13
(dp761
g142
F-1.0
sg98
F1.0
stp762
Rp763
sg18
I-2553330628009308297
sbtp764
Rp765
sg147
g4
(F3.0
g5
(g6
g7
Ntp766
Rp767
(dp768
g11
g5
(g12
g13
(dp769
g58
F1.0
stp770
Rp771
sg18
I-8637397557623547456
sbtp772
Rp773
sg156
g4
(g157
(g89
S'\x97\x1cwJ\x07\xeb\xe5\xbf'
p774
tp775
Rp776
g162
tp777
Rp778
sbag5
(g74
g7
Ntp779
Rp780
(dp781
g78
g4
(g79
(g80
(I0
tp782
g82
tp783
Rp784
(I1
(I1
tp785
g89
I00
S'w\x83\r\xf4\xf5!\xa4>'
p786
tp787
bg95
tp788
Rp789
sg103
g4
(F180.0
g5
(g6
g7
Ntp790
Rp791
(dp792
g11
g5
(g12
g13
(dp793
g58
F1.0
stp794
Rp795
sg18
I-8637397557623547456
sbtp796
Rp797
sg112
I12
sg113
g4
(F5.0
g5
(g6
g7
Ntp798
Rp799
(dp800
g11
g5
(g12
g13
(dp801
g58
F1.0
stp802
Rp803
sg18
I-8637397557623547456
sbtp804
Rp805
sg122
g4
(F1.5
g5
(g6
g7
Ntp806
Rp807
(dp808
g11
g5
(g12
g13
(dp809
g127
F1.0
stp810
Rp811
sg18
I-4606935264605141194
sbtp812
Rp813
sg132
g4
(g79
(g80
(I0
tp814
g82
tp815
Rp816
(I1
(tg89
I00
S'\x9a\x99\x99\x99\x99\x99\xd9?'
p817
tp818
bg5
(g6
g7
Ntp819
Rp820
(dp821
g11
g5
(g12
g13
(dp822
g142
F-1.0
sg98
F1.0
stp823
Rp824
sg18
I-2553330628009308297
sbtp825
Rp826
sg147
g4
(F3.0
g5
(g6
g7
Ntp827
Rp828
(dp829
g11
g5
(g12
g13
(dp830
g58
F1.0
stp831
Rp832
sg18
I-8637397557623547456
sbtp833
Rp834
sg156
g4
(g157
(g89
S'\x90\x14\x91a\x15o\xd0\xbf'
p835
tp836
Rp837
g162
tp838
Rp839
sbag5
(g74
g7
Ntp840
Rp841
(dp842
g78
g4
(g79
(g80
(I0
tp843
g82
tp844
Rp845
(I1
(I1
tp846
g89
I00
S'w\x83\r\xf4\xf5!\xa4>'
p847
tp848
bg95
tp849
Rp850
sg103
g4
(F180.0
g5
(g6
g7
Ntp851
Rp852
(dp853
g11
g5
(g12
g13
(dp854
g58
F1.0
stp855
Rp856
sg18
I-8637397557623547456
sbtp857
Rp858
sg112
I13
sg113
g4
(F5.0
g5
(g6
g7
Ntp859
Rp860
(dp861
g11
g5
(g12
g13
(dp862
g58
F1.0
stp863
Rp864
sg18
I-8637397557623547456
sbtp865
Rp866
sg122
g4
(F1.5
g5
(g6
g7
Ntp867
Rp868
(dp869
g11
g5
(g12
g13
(dp870
g127
F1.0
stp871
Rp872
sg18
I-4606935264605141194
sbtp873
Rp874
sg132
g4
(g79
(g80
(I0
tp875
g82
tp876
Rp877
(I1
(tg89
I00
S'\x9a\x99\x99\x99\x99\x99\xd9?'
p878
tp879
bg5
(g6
g7
Ntp880
Rp881
(dp882
g11
g5
(g12
g13
(dp883
g142
F-1.0
sg98
F1.0
stp884
Rp885
sg18
I-2553330628009308297
sbtp886
Rp887
sg147
g4
(F3.0
g5
(g6
g7
Ntp888
Rp889
(dp890
g11
g5
(g12
g13
(dp891
g58
F1.0
stp892
Rp893
sg18
I-8637397557623547456
sbtp894
Rp895
sg156
g4
(g157
(g89
S'\xc9\xeaV\xcfI\xef{?'
p896
tp897
Rp898
g162
tp899
Rp900
sbag5
(g74
g7
Ntp901
Rp902
(dp903
g78
g4
(g79
(g80
(I0
tp904
g82
tp905
Rp906
(I1
(I1
tp907
g89
I00
S'w\x83\r\xf4\xf5!\xa4>'
p908
tp909
bg95
tp910
Rp911
sg103
g4
(F180.0
g5
(g6
g7
Ntp912
Rp913
(dp914
g11
g5
(g12
g13
(dp915
g58
F1.0
stp916
Rp917
sg18
I-8637397557623547456
sbtp918
Rp919
sg112
I14
sg113
g4
(F5.0
g5
(g6
g7
Ntp920
Rp921
(dp922
g11
g5
(g12
g13
(dp923
g58
F1.0
stp924
Rp925
sg18
I-8637397557623547456
sbtp926
Rp927
sg122
g4
(F1.5
g5
(g6
g7
Ntp928
Rp929
(dp930
g11
g5
(g12
g13
(dp931
g127
F1.0
stp932
Rp933
sg18
I-4606935264605141194
sbtp934
Rp935
sg132
g4
(g79
(g80
(I0
tp936
g82
tp937
Rp938
(I1
(tg89
I00
S'\x9a\x99\x99\x99\x99\x99\xd9?'
p939
tp940
bg5
(g6
g7
Ntp941
Rp942
(dp943
g11
g5
(g12
g13
(dp944
g142
F-1.0
sg98
F1.0
stp945
Rp946
sg18
I-2553330628009308297
sbtp947
Rp948
sg147
g4
(F3.0
g5
(g6
g7
Ntp949
Rp950
(dp951
g11
g5
(g12
g13
(dp952
g58
F1.0
stp953
Rp954
sg18
I-8637397557623547456
sbtp955
Rp956
sg156
g4
(g157
(g89
S'\x08\x03\xcf\xbd\x87K\xc2?'
p957
tp958
Rp959
g162
tp960
Rp961
sbag5
(g74
g7
Ntp962
Rp963
(dp964
g78
g4
(g79
(g80
(I0
tp965
g82
tp966
Rp967
(I1
(I1
tp968
g89
I00
S'w\x83\r\xf4\xf5!\xa4>'
p969
tp970
bg95
tp971
Rp972
sg103
g4
(F180.0
g5
(g6
g7
Ntp973
Rp974
(dp975
g11
g5
(g12
g13
(dp976
g58
F1.0
stp977
Rp978
sg18
I-8637397557623547456
sbtp979
Rp980
sg112
I15
sg113
g4
(F5.0
g5
(g6
g7
Ntp981
Rp982
(dp983
g11
g5
(g12
g13
(dp984
g58
F1.0
stp985
Rp986
sg18
I-8637397557623547456
sbtp987
Rp988
sg122
g4
(F1.5
g5
(g6
g7
Ntp989
Rp990
(dp991
g11
g5
(g12
g13
(dp992
g127
F1.0
stp993
Rp994
sg18
I-4606935264605141194
sbtp995
Rp996
sg132
g4
(g79
(g80
(I0
tp997
g82
tp998
Rp999
(I1
(tg89
I00
S'\x9a\x99\x99\x99\x99\x99\xd9?'
p1000
tp1001
bg5
(g6
g7
Ntp1002
Rp1003
(dp1004
g11
g5
(g12
g13
(dp1005
g142
F-1.0
sg98
F1.0
stp1006
Rp1007
sg18
I-2553330628009308297
sbtp1008
Rp1009
sg147
g4
(F3.0
g5
(g6
g7
Ntp1010
Rp1011
(dp1012
g11
g5
(g12
g13
(dp1013
g58
F1.0
stp1014
Rp1015
sg18
I-8637397557623547456
sbtp1016
Rp1017
sg156
g4
(g157
(g89
S'\x97\x8b\xf8N\xccz\x91\xbf'
p1018
tp1019
Rp1020
g162
tp1021
Rp1022
sbag5
(g74
g7
Ntp1023
Rp1024
(dp1025
g78
g4
(g79
(g80
(I0
tp1026
g82
tp1027
Rp1028
(I1
(I1
tp1029
g89
I00
S'w\x83\r\xf4\xf5!\xa4>'
p1030
tp1031
bg95
tp1032
Rp1033
sg103
g4
(F180.0
g5
(g6
g7
Ntp1034
Rp1035
(dp1036
g11
g5
(g12
g13
(dp1037
g58
F1.0
stp1038
Rp1039
sg18
I-8637397557623547456
sbtp1040
Rp1041
sg112
I16
sg113
g4
(F5.0
g5
(g6
g7
Ntp1042
Rp1043
(dp1044
g11
g5
(g12
g13
(dp1045
g58
F1.0
stp1046
Rp1047
sg18
I-8637397557623547456
sbtp1048
Rp1049
sg122
g4
(F1.5
g5
(g6
g7
Ntp1050
Rp1051
(dp1052
g11
g5
(g12
g13
(dp1053
g127
F1.0
stp1054
Rp1055
sg18
I-4606935264605141194
sbtp1056
Rp1057
sg132
g4
(g79
(g80
(I0
tp1058
g82
tp1059
Rp1060
(I1
(tg89
I00
S'\x9a\x99\x99\x99\x99\x99\xd9?'
p1061
tp1062
bg5
(g6
g7
Ntp1063
Rp1064
(dp1065
g11
g5
(g12
g13
(dp1066
g142
F-1.0
sg98
F1.0
stp1067
Rp1068
sg18
I-2553330628009308297
sbtp1069
Rp1070
sg147
g4
(F3.0
g5
(g6
g7
Ntp1071
Rp1072
(dp1073
g11
g5
(g12
g13
(dp1074
g58
F1.0
stp1075
Rp1076
sg18
I-8637397557623547456
sbtp1077
Rp1078
sg156
g4
(g157
(g89
S'\x86\xc9T\xc1\xa8\xa4\xae?'
p1079
tp1080
Rp1081
g162
tp1082
Rp1083
sbag5
(g74
g7
Ntp1084
Rp1085
(dp1086
g78
g4
(g79
(g80
(I0
tp1087
g82
tp1088
Rp1089
(I1
(I1
tp1090
g89
I00
S'w\x83\r\xf4\xf5!\xa4>'
p1091
tp1092
bg95
tp1093
Rp1094
sg103
g4
(F180.0
g5
(g6
g7
Ntp1095
Rp1096
(dp1097
g11
g5
(g12
g13
(dp1098
g58
F1.0
stp1099
Rp1100
sg18
I-8637397557623547456
sbtp1101
Rp1102
sg112
I17
sg113
g4
(F5.0
g5
(g6
g7
Ntp1103
Rp1104
(dp1105
g11
g5
(g12
g13
(dp1106
g58
F1.0
stp1107
Rp1108
sg18
I-8637397557623547456
sbtp1109
Rp1110
sg122
g4
(F1.5
g5
(g6
g7
Ntp1111
Rp1112
(dp1113
g11
g5
(g12
g13
(dp1114
g127
F1.0
stp1115
Rp1116
sg18
I-4606935264605141194
sbtp1117
Rp1118
sg132
g4
(g79
(g80
(I0
tp1119
g82
tp1120
Rp1121
(I1
(tg89
I00
S'\x9a\x99\x99\x99\x99\x99\xd9?'
p1122
tp1123
bg5
(g6
g7
Ntp1124
Rp1125
(dp1126
g11
g5
(g12
g13
(dp1127
g142
F-1.0
sg98
F1.0
stp1128
Rp1129
sg18
I-2553330628009308297
sbtp1130
Rp1131
sg147
g4
(F3.0
g5
(g6
g7
Ntp1132
Rp1133
(dp1134
g11
g5
(g12
g13
(dp1135
g58
F1.0
stp1136
Rp1137
sg18
I-8637397557623547456
sbtp1138
Rp1139
sg156
g4
(g157
(g89
S'\xab\t\xa2\xee\x03\x90\xd0?'
p1140
tp1141
Rp1142
g162
tp1143
Rp1144
sbag5
(g74
g7
Ntp1145
Rp1146
(dp1147
g78
g4
(g79
(g80
(I0
tp1148
g82
tp1149
Rp1150
(I1
(I1
tp1151
g89
I00
S'w\x83\r\xf4\xf5!\xa4>'
p1152
tp1153
bg95
tp1154
Rp1155
sg103
g4
(F180.0
g5
(g6
g7
Ntp1156
Rp1157
(dp1158
g11
g5
(g12
g13
(dp1159
g58
F1.0
stp1160
Rp1161
sg18
I-8637397557623547456
sbtp1162
Rp1163
sg112
I18
sg113
g4
(F5.0
g5
(g6
g7
Ntp1164
Rp1165
(dp1166
g11
g5
(g12
g13
(dp1167
g58
F1.0
stp1168
Rp1169
sg18
I-8637397557623547456
sbtp1170
Rp1171
sg122
g4
(F1.5
g5
(g6
g7
Ntp1172
Rp1173
(dp1174
g11
g5
(g12
g13
(dp1175
g127
F1.0
stp1176
Rp1177
sg18
I-4606935264605141194
sbtp1178
Rp1179
sg132
g4
(g79
(g80
(I0
tp1180
g82
tp1181
Rp1182
(I1
(tg89
I00
S'\x9a\x99\x99\x99\x99\x99\xd9?'
p1183
tp1184
bg5
(g6
g7
Ntp1185
Rp1186
(dp1187
g11
g5
(g12
g13
(dp1188
g142
F-1.0
sg98
F1.0
stp1189
Rp1190
sg18
I-2553330628009308297
sbtp1191
Rp1192
sg147
g4
(F3.0
g5
(g6
g7
Ntp1193
Rp1194
(dp1195
g11
g5
(g12
g13
(dp1196
g58
F1.0
stp1197
Rp1198
sg18
I-8637397557623547456
sbtp1199
Rp1200
sg156
g4
(g157
(g89
S'\x81&\xc2\x86\xa7W\xba?'
p1201
tp1202
Rp1203
g162
tp1204
Rp1205
sbag5
(g74
g7
Ntp1206
Rp1207
(dp1208
g78
g4
(g79
(g80
(I0
tp1209
g82
tp1210
Rp1211
(I1
(I1
tp1212
g89
I00
S'w\x83\r\xf4\xf5!\xa4>'
p1213
tp1214
bg95
tp1215
Rp1216
sg103
g4
(F180.0
g5
(g6
g7
Ntp1217
Rp1218
(dp1219
g11
g5
(g12
g13
(dp1220
g58
F1.0
stp1221
Rp1222
sg18
I-8637397557623547456
sbtp1223
Rp1224
sg112
I19
sg113
g4
(F5.0
g5
(g6
g7
Ntp1225
Rp1226
(dp1227
g11
g5
(g12
g13
(dp1228
g58
F1.0
stp1229
Rp1230
sg18
I-8637397557623547456
sbtp1231
Rp1232
sg122
g4
(F1.5
g5
(g6
g7
Ntp1233
Rp1234
(dp1235
g11
g5
(g12
g13
(dp1236
g127
F1.0
stp1237
Rp1238
sg18
I-4606935264605141194
sbtp1239
Rp1240
sg132
g4
(g79
(g80
(I0
tp1241
g82
tp1242
Rp1243
(I1
(tg89
I00
S'\x9a\x99\x99\x99\x99\x99\xd9?'
p1244
tp1245
bg5
(g6
g7
Ntp1246
Rp1247
(dp1248
g11
g5
(g12
g13
(dp1249
g142
F-1.0
sg98
F1.0
stp1250
Rp1251
sg18
I-2553330628009308297
sbtp1252
Rp1253
sg147
g4
(F3.0
g5
(g6
g7
Ntp1254
Rp1255
(dp1256
g11
g5
(g12
g13
(dp1257
g58
F1.0
stp1258
Rp1259
sg18
I-8637397557623547456
sbtp1260
Rp1261
sg156
g4
(g157
(g89
S'\xee\x94\x0e\xd6\xff9\xb4?'
p1262
tp1263
Rp1264
g162
tp1265
Rp1266
sbag5
(g74
g7
Ntp1267
Rp1268
(dp1269
g78
g4
(g79
(g80
(I0
tp1270
g82
tp1271
Rp1272
(I1
(I1
tp1273
g89
I00
S'w\x83\r\xf4\xf5!\xa4>'
p1274
tp1275
bg95
tp1276
Rp1277
sg103
g4
(F180.0
g5
(g6
g7
Ntp1278
Rp1279
(dp1280
g11
g5
(g12
g13
(dp1281
g58
F1.0
stp1282
Rp1283
sg18
I-8637397557623547456
sbtp1284
Rp1285
sg112
I20
sg113
g4
(F5.0
g5
(g6
g7
Ntp1286
Rp1287
(dp1288
g11
g5
(g12
g13
(dp1289
g58
F1.0
stp1290
Rp1291
sg18
I-8637397557623547456
sbtp1292
Rp1293
sg122
g4
(F1.5
g5
(g6
g7
Ntp1294
Rp1295
(dp1296
g11
g5
(g12
g13
(dp1297
g127
F1.0
stp1298
Rp1299
sg18
I-4606935264605141194
sbtp1300
Rp1301
sg132
g4
(g79
(g80
(I0
tp1302
g82
tp1303
Rp1304
(I1
(tg89
I00
S'\x9a\x99\x99\x99\x99\x99\xd9?'
p1305
tp1306
bg5
(g6
g7
Ntp1307
Rp1308
(dp1309
g11
g5
(g12
g13
(dp1310
g142
F-1.0
sg98
F1.0
stp1311
Rp1312
sg18
I-2553330628009308297
sbtp1313
Rp1314
sg147
g4
(F3.0
g5
(g6
g7
Ntp1315
Rp1316
(dp1317
g11
g5
(g12
g13
(dp1318
g58
F1.0
stp1319
Rp1320
sg18
I-8637397557623547456
sbtp1321
Rp1322
sg156
g4
(g157
(g89
S'\xb3^\x0c\xe5D\xbb\xb2?'
p1323
tp1324
Rp1325
g162
tp1326
Rp1327
sbag5
(g74
g7
Ntp1328
Rp1329
(dp1330
g78
g4
(g79
(g80
(I0
tp1331
g82
tp1332
Rp1333
(I1
(I1
tp1334
g89
I00
S'w\x83\r\xf4\xf5!\xa4>'
p1335
tp1336
bg95
tp1337
Rp1338
sg103
g4
(F180.0
g5
(g6
g7
Ntp1339
Rp1340
(dp1341
g11
g5
(g12
g13
(dp1342
g58
F1.0
stp1343
Rp1344
sg18
I-8637397557623547456
sbtp1345
Rp1346
sg112
I21
sg113
g4
(F5.0
g5
(g6
g7
Ntp1347
Rp1348
(dp1349
g11
g5
(g12
g13
(dp1350
g58
F1.0
stp1351
Rp1352
sg18
I-8637397557623547456
sbtp1353
Rp1354
sg122
g4
(F1.5
g5
(g6
g7
Ntp1355
Rp1356
(dp1357
g11
g5
(g12
g13
(dp1358
g127
F1.0
stp1359
Rp1360
sg18
I-4606935264605141194
sbtp1361
Rp1362
sg132
g4
(g79
(g80
(I0
tp1363
g82
tp1364
Rp1365
(I1
(tg89
I00
S'\x9a\x99\x99\x99\x99\x99\xd9?'
p1366
tp1367
bg5
(g6
g7
Ntp1368
Rp1369
(dp1370
g11
g5
(g12
g13
(dp1371
g142
F-1.0
sg98
F1.0
stp1372
Rp1373
sg18
I-2553330628009308297
sbtp1374
Rp1375
sg147
g4
(F3.0
g5
(g6
g7
Ntp1376
Rp1377
(dp1378
g11
g5
(g12
g13
(dp1379
g58
F1.0
stp1380
Rp1381
sg18
I-8637397557623547456
sbtp1382
Rp1383
sg156
g4
(g157
(g89
S'\x04s\xf4\xf8\xbdM\xcf?'
p1384
tp1385
Rp1386
g162
tp1387
Rp1388
sbag5
(g74
g7
Ntp1389
Rp1390
(dp1391
g78
g4
(g79
(g80
(I0
tp1392
g82
tp1393
Rp1394
(I1
(I1
tp1395
g89
I00
S'w\x83\r\xf4\xf5!\xa4>'
p1396
tp1397
bg95
tp1398
Rp1399
sg103
g4
(F180.0
g5
(g6
g7
Ntp1400
Rp1401
(dp1402
g11
g5
(g12
g13
(dp1403
g58
F1.0
stp1404
Rp1405
sg18
I-8637397557623547456
sbtp1406
Rp1407
sg112
I22
sg113
g4
(F5.0
g5
(g6
g7
Ntp1408
Rp1409
(dp1410
g11
g5
(g12
g13
(dp1411
g58
F1.0
stp1412
Rp1413
sg18
I-8637397557623547456
sbtp1414
Rp1415
sg122
g4
(F1.5
g5
(g6
g7
Ntp1416
Rp1417
(dp1418
g11
g5
(g12
g13
(dp1419
g127
F1.0
stp1420
Rp1421
sg18
I-4606935264605141194
sbtp1422
Rp1423
sg132
g4
(g79
(g80
(I0
tp1424
g82
tp1425
Rp1426
(I1
(tg89
I00
S'\x9a\x99\x99\x99\x99\x99\xd9?'
p1427
tp1428
bg5
(g6
g7
Ntp1429
Rp1430
(dp1431
g11
g5
(g12
g13
(dp1432
g142
F-1.0
sg98
F1.0
stp1433
Rp1434
sg18
I-2553330628009308297
sbtp1435
Rp1436
sg147
g4
(F3.0
g5
(g6
g7
Ntp1437
Rp1438
(dp1439
g11
g5
(g12
g13
(dp1440
g58
F1.0
stp1441
Rp1442
sg18
I-8637397557623547456
sbtp1443
Rp1444
sg156
g4
(g157
(g89
S'+\x82\xff\xadd\xc7\xa6\xbf'
p1445
tp1446
Rp1447
g162
tp1448
Rp1449
sbag5
(g74
g7
Ntp1450
Rp1451
(dp1452
g78
g4
(g79
(g80
(I0
tp1453
g82
tp1454
Rp1455
(I1
(I1
tp1456
g89
I00
S'w\x83\r\xf4\xf5!\xa4>'
p1457
tp1458
bg95
tp1459
Rp1460
sg103
g4
(F180.0
g5
(g6
g7
Ntp1461
Rp1462
(dp1463
g11
g5
(g12
g13
(dp1464
g58
F1.0
stp1465
Rp1466
sg18
I-8637397557623547456
sbtp1467
Rp1468
sg112
I23
sg113
g4
(F5.0
g5
(g6
g7
Ntp1469
Rp1470
(dp1471
g11
g5
(g12
g13
(dp1472
g58
F1.0
stp1473
Rp1474
sg18
I-8637397557623547456
sbtp1475
Rp1476
sg122
g4
(F1.5
g5
(g6
g7
Ntp1477
Rp1478
(dp1479
g11
g5
(g12
g13
(dp1480
g127
F1.0
stp1481
Rp1482
sg18
I-4606935264605141194
sbtp1483
Rp1484
sg132
g4
(g79
(g80
(I0
tp1485
g82
tp1486
Rp1487
(I1
(tg89
I00
S'\x9a\x99\x99\x99\x99\x99\xd9?'
p1488
tp1489
bg5
(g6
g7
Ntp1490
Rp1491
(dp1492
g11
g5
(g12
g13
(dp1493
g142
F-1.0
sg98
F1.0
stp1494
Rp1495
sg18
I-2553330628009308297
sbtp1496
Rp1497
sg147
g4
(F3.0
g5
(g6
g7
Ntp1498
Rp1499
(dp1500
g11
g5
(g12
g13
(dp1501
g58
F1.0
stp1502
Rp1503
sg18
I-8637397557623547456
sbtp1504
Rp1505
sg156
g4
(g157
(g89
S'\x95\xec\xd8\x08\xc4\xeb\xaa\xbf'
p1506
tp1507
Rp1508
g162
tp1509
Rp1510
sbasS'jacket_temperature'
p1511
NsS'filter_period_end_time'
p1512
NsS'syringe_concentration'
p1513
(dp1514
S'ligand'
p1515
g4
(F0.4
g5
(g6
g7
Ntp1516
Rp1517
(dp1518
g11
g5
(g12
g13
(dp1519
g142
F-1.0
sg98
F1.0
stp1520
Rp1521
sg18
I-2553330628009308297
sbtp1522
Rp1523
ssS'heat'
p1524
(lp1525
sS'data_filename'
p1526
S'/home/tnguye46/bayesian_itc/ubtln59/1.itc_origin_heat_files/ubtln59c21082014.itc'
p1527
sS'stir_speed'
p1528
NsS'data_source'
p1529
g1527
sS'cell_concentration'
p1530
(dp1531
S'macromolecule'
p1532
g4
(F0.03
g5
(g6
g7
Ntp1533
Rp1534
(dp1535
g11
g5
(g12
g13
(dp1536
g142
F-1.0
sg98
F1.0
stp1537
Rp1538
sg18
I-2553330628009308297
sbtp1539
Rp1540
ssS'name'
p1541
S'ubtln59c21082014'
p1542
sS'cell_temperature'
p1543
g4
(g79
(g80
(I0
tp1544
g82
tp1545
Rp1546
(I1
(I23
tp1547
g89
I00
S'fffff\xa2r@fffff\xa2r@fffff\xa2r@fffff\xa2r@fffff\xa2r@fffff\xa2r@fffff\xa2r@fffff\xa2r@fffff\xa2r@fffff\xa2r@fffff\xa2r@fffff\xa2r@fffff\xa2r@fffff\xa2r@fffff\xa2r@fffff\xa2r@fffff\xa2r@fffff\xa2r@fffff\xa2r@fffff\xa2r@fffff\xa2r@fffff\xa2r@fffff\xa2r@'
p1548
tp1549
bg5
(g6
g7
Ntp1550
Rp1551
(dp1552
g11
g5
(g12
g13
(dp1553
g15
F1.0
stp1554
Rp1555
sg18
I6369073192305681123
sbtp1556
Rp1557
sS'equilibration_time'
p1558
g4
(I180
g5
(g6
g7
Ntp1559
Rp1560
(dp1561
g11
g5
(g12
g13
(dp1562
g58
F1.0
stp1563
Rp1564
sg18
I-8637397557623547456
sbtp1565
Rp1566
sS'time'
p1567
(lp1568
s.