(dp0
S'filter_period_midpoint_time'
p1
NsS'differential_power'
p2
NsS'target_temperature'
p3
cpint
_build_quantity
p4
(F298.15
ccopy_reg
_reconstructor
p5
(cpint.util
UnitsContainer
p6
c__builtin__
object
p7
Ntp8
Rp9
(dp10
V_d
p11
g5
(cpint.util
udict
p12
c__builtin__
dict
p13
(dp14
Vkelvin
p15
F1.0
stp16
Rp17
sV_hash
p18
I6369073192305681123
sbtp19
Rp20
sS'stir_rate'
p21
g4
(I410
g5
(g6
g7
Ntp22
Rp23
(dp24
g11
g5
(g12
g13
(dp25
Vrevolutions_per_minute
p26
F1.0
stp27
Rp28
sg18
I-9069124146733934765
sbtp29
Rp30
sS'temperature'
p31
(lp32
sS'number_of_injections'
p33
I14
sS'instrument'
p34
g5
(cbitc.instruments
Instrument
p35
g7
Ntp36
Rp37
(dp38
S'V0'
p39
g4
(F1.434
g5
(g6
g7
Ntp40
Rp41
(dp42
g11
g5
(g12
g13
(dp43
Vmilliliter
p44
F1.0
stp45
Rp46
sg18
I-2568644798021485481
sbtp47
Rp48
sS'V_correction'
p49
F0.0
sS'description'
p50
S''
p51
sbsS'reference_power'
p52
g4
(F5.0
g5
(g6
g7
Ntp53
Rp54
(dp55
g11
g5
(g12
g13
(dp56
Vmicrocal
p57
F1.0
sVsecond
p58
F-1.0
stp59
Rp60
sg18
I653647005797199061
sbtp61
Rp62
sS'cell_volume'
p63
g4
(F1.434
g5
(g6
g7
Ntp64
Rp65
(dp66
g11
g5
(g12
g13
(dp67
g44
F1.0
stp68
Rp69
sg18
I-2568644798021485481
sbtp70
Rp71
sS'injections'
p72
(lp73
g5
(cbitc.experiments
Injection
p74
g7
Ntp75
Rp76
(dp77
S'titrant'
p78
g4
(cnumpy.core.multiarray
_reconstruct
p79
(cnumpy
ndarray
p80
(I0
tp81
S'b'
p82
tp83
Rp84
(I1
(I1
tp85
cnumpy
dtype
p86
(S'f8'
p87
I0
I1
tp88
Rp89
(I3
S'<'
p90
NNNI-1
I-1
I0
tp91
bI00
S'\xd0\xfaJ\xd6\x97[\xd0>'
p92
tp93
bg5
(g6
g7
Ntp94
Rp95
(dp96
g11
g5
(g12
g13
(dp97
Vmillimole
p98
F1.0
stp99
Rp100
sg18
I-3231288464854266307
sbtp101
Rp102
sS'spacing'
p103
g4
(F240.0
g5
(g6
g7
Ntp104
Rp105
(dp106
g11
g5
(g12
g13
(dp107
g58
F1.0
stp108
Rp109
sg18
I-8637397557623547456
sbtp110
Rp111
sS'number'
p112
I1
sS'filter_period'
p113
g4
(F5.0
g5
(g6
g7
Ntp114
Rp115
(dp116
g11
g5
(g12
g13
(dp117
g58
F1.0
stp118
Rp119
sg18
I-8637397557623547456
sbtp120
Rp121
sS'volume'
p122
g4
(F10.0
g5
(g6
g7
Ntp123
Rp124
(dp125
g11
g5
(g12
g13
(dp126
Vmicroliter
p127
F1.0
stp128
Rp129
sg18
I-4606935264605141194
sbtp130
Rp131
sS'titrant_concentration'
p132
g4
(g79
(g80
(I0
tp133
g82
tp134
Rp135
(I1
(tg89
I00
S'\xf6(\\\x8f\xc2\xf5\xd8?'
p136
tp137
bg5
(g6
g7
Ntp138
Rp139
(dp140
g11
g5
(g12
g13
(dp141
Vliter
p142
F-1.0
sg98
F1.0
stp143
Rp144
sg18
I-2553330628009308297
sbtp145
Rp146
sS'duration'
p147
g4
(F3.0
g5
(g6
g7
Ntp148
Rp149
(dp150
g11
g5
(g12
g13
(dp151
g58
F1.0
stp152
Rp153
sg18
I-8637397557623547456
sbtp154
Rp155
sS'evolved_heat'
p156
g4
(cnumpy.core.multiarray
scalar
p157
(g89
S'I\x11\x19V\xf1\xaa@\xc0'
p158
tp159
Rp160
g5
(g6
g7
Ntp161
Rp162
(dp163
g11
g5
(g12
g13
(dp164
g57
F1.0
stp165
Rp166
sg18
I4447981639521838742
sbtp167
Rp168
sbag5
(g74
g7
Ntp169
Rp170
(dp171
g78
g4
(g79
(g80
(I0
tp172
g82
tp173
Rp174
(I1
(I1
tp175
g89
I00
S'\xd0\xfaJ\xd6\x97[\xd0>'
p176
tp177
bg95
tp178
Rp179
sg103
g4
(F240.0
g5
(g6
g7
Ntp180
Rp181
(dp182
g11
g5
(g12
g13
(dp183
g58
F1.0
stp184
Rp185
sg18
I-8637397557623547456
sbtp186
Rp187
sg112
I2
sg113
g4
(F5.0
g5
(g6
g7
Ntp188
Rp189
(dp190
g11
g5
(g12
g13
(dp191
g58
F1.0
stp192
Rp193
sg18
I-8637397557623547456
sbtp194
Rp195
sg122
g4
(F10.0
g5
(g6
g7
Ntp196
Rp197
(dp198
g11
g5
(g12
g13
(dp199
g127
F1.0
stp200
Rp201
sg18
I-4606935264605141194
sbtp202
Rp203
sg132
g4
(g79
(g80
(I0
tp204
g82
tp205
Rp206
(I1
(tg89
I00
S'\xf6(\\\x8f\xc2\xf5\xd8?'
p207
tp208
bg5
(g6
g7
Ntp209
Rp210
(dp211
g11
g5
(g12
g13
(dp212
g142
F-1.0
sg98
F1.0
stp213
Rp214
sg18
I-2553330628009308297
sbtp215
Rp216
sg147
g4
(F3.0
g5
(g6
g7
Ntp217
Rp218
(dp219
g11
g5
(g12
g13
(dp220
g58
F1.0
stp221
Rp222
sg18
I-8637397557623547456
sbtp223
Rp224
sg156
g4
(g157
(g89
S'`^\x80}t\xc2?\xc0'
p225
tp226
Rp227
g162
tp228
Rp229
sbag5
(g74
g7
Ntp230
Rp231
(dp232
g78
g4
(g79
(g80
(I0
tp233
g82
tp234
Rp235
(I1
(I1
tp236
g89
I00
S'\xd0\xfaJ\xd6\x97[\xd0>'
p237
tp238
bg95
tp239
Rp240
sg103
g4
(F240.0
g5
(g6
g7
Ntp241
Rp242
(dp243
g11
g5
(g12
g13
(dp244
g58
F1.0
stp245
Rp246
sg18
I-8637397557623547456
sbtp247
Rp248
sg112
I3
sg113
g4
(F5.0
g5
(g6
g7
Ntp249
Rp250
(dp251
g11
g5
(g12
g13
(dp252
g58
F1.0
stp253
Rp254
sg18
I-8637397557623547456
sbtp255
Rp256
sg122
g4
(F10.0
g5
(g6
g7
Ntp257
Rp258
(dp259
g11
g5
(g12
g13
(dp260
g127
F1.0
stp261
Rp262
sg18
I-4606935264605141194
sbtp263
Rp264
sg132
g4
(g79
(g80
(I0
tp265
g82
tp266
Rp267
(I1
(tg89
I00
S'\xf6(\\\x8f\xc2\xf5\xd8?'
p268
tp269
bg5
(g6
g7
Ntp270
Rp271
(dp272
g11
g5
(g12
g13
(dp273
g142
F-1.0
sg98
F1.0
stp274
Rp275
sg18
I-2553330628009308297
sbtp276
Rp277
sg147
g4
(F3.0
g5
(g6
g7
Ntp278
Rp279
(dp280
g11
g5
(g12
g13
(dp281
g58
F1.0
stp282
Rp283
sg18
I-8637397557623547456
sbtp284
Rp285
sg156
g4
(g157
(g89
S'\x97\x1cwJ\x07\x83;\xc0'
p286
tp287
Rp288
g162
tp289
Rp290
sbag5
(g74
g7
Ntp291
Rp292
(dp293
g78
g4
(g79
(g80
(I0
tp294
g82
tp295
Rp296
(I1
(I1
tp297
g89
I00
S'\xd0\xfaJ\xd6\x97[\xd0>'
p298
tp299
bg95
tp300
Rp301
sg103
g4
(F240.0
g5
(g6
g7
Ntp302
Rp303
(dp304
g11
g5
(g12
g13
(dp305
g58
F1.0
stp306
Rp307
sg18
I-8637397557623547456
sbtp308
Rp309
sg112
I4
sg113
g4
(F5.0
g5
(g6
g7
Ntp310
Rp311
(dp312
g11
g5
(g12
g13
(dp313
g58
F1.0
stp314
Rp315
sg18
I-8637397557623547456
sbtp316
Rp317
sg122
g4
(F10.0
g5
(g6
g7
Ntp318
Rp319
(dp320
g11
g5
(g12
g13
(dp321
g127
F1.0
stp322
Rp323
sg18
I-4606935264605141194
sbtp324
Rp325
sg132
g4
(g79
(g80
(I0
tp326
g82
tp327
Rp328
(I1
(tg89
I00
S'\xf6(\\\x8f\xc2\xf5\xd8?'
p329
tp330
bg5
(g6
g7
Ntp331
Rp332
(dp333
g11
g5
(g12
g13
(dp334
g142
F-1.0
sg98
F1.0
stp335
Rp336
sg18
I-2553330628009308297
sbtp337
Rp338
sg147
g4
(F3.0
g5
(g6
g7
Ntp339
Rp340
(dp341
g11
g5
(g12
g13
(dp342
g58
F1.0
stp343
Rp344
sg18
I-8637397557623547456
sbtp345
Rp346
sg156
g4
(g157
(g89
S'\x1b\x12\xf7X\xfah6\xc0'
p347
tp348
Rp349
g162
tp350
Rp351
sbag5
(g74
g7
Ntp352
Rp353
(dp354
g78
g4
(g79
(g80
(I0
tp355
g82
tp356
Rp357
(I1
(I1
tp358
g89
I00
S'\xd0\xfaJ\xd6\x97[\xd0>'
p359
tp360
bg95
tp361
Rp362
sg103
g4
(F240.0
g5
(g6
g7
Ntp363
Rp364
(dp365
g11
g5
(g12
g13
(dp366
g58
F1.0
stp367
Rp368
sg18
I-8637397557623547456
sbtp369
Rp370
sg112
I5
sg113
g4
(F5.0
g5
(g6
g7
Ntp371
Rp372
(dp373
g11
g5
(g12
g13
(dp374
g58
F1.0
stp375
Rp376
sg18
I-8637397557623547456
sbtp377
Rp378
sg122
g4
(F10.0
g5
(g6
g7
Ntp379
Rp380
(dp381
g11
g5
(g12
g13
(dp382
g127
F1.0
stp383
Rp384
sg18
I-4606935264605141194
sbtp385
Rp386
sg132
g4
(g79
(g80
(I0
tp387
g82
tp388
Rp389
(I1
(tg89
I00
S'\xf6(\\\x8f\xc2\xf5\xd8?'
p390
tp391
bg5
(g6
g7
Ntp392
Rp393
(dp394
g11
g5
(g12
g13
(dp395
g142
F-1.0
sg98
F1.0
stp396
Rp397
sg18
I-2553330628009308297
sbtp398
Rp399
sg147
g4
(F3.0
g5
(g6
g7
Ntp400
Rp401
(dp402
g11
g5
(g12
g13
(dp403
g58
F1.0
stp404
Rp405
sg18
I-8637397557623547456
sbtp406
Rp407
sg156
g4
(g157
(g89
S'\xbb\x0f@j\x13\xd7/\xc0'
p408
tp409
Rp410
g162
tp411
Rp412
sbag5
(g74
g7
Ntp413
Rp414
(dp415
g78
g4
(g79
(g80
(I0
tp416
g82
tp417
Rp418
(I1
(I1
tp419
g89
I00
S'\xd0\xfaJ\xd6\x97[\xd0>'
p420
tp421
bg95
tp422
Rp423
sg103
g4
(F240.0
g5
(g6
g7
Ntp424
Rp425
(dp426
g11
g5
(g12
g13
(dp427
g58
F1.0
stp428
Rp429
sg18
I-8637397557623547456
sbtp430
Rp431
sg112
I6
sg113
g4
(F5.0
g5
(g6
g7
Ntp432
Rp433
(dp434
g11
g5
(g12
g13
(dp435
g58
F1.0
stp436
Rp437
sg18
I-8637397557623547456
sbtp438
Rp439
sg122
g4
(F10.0
g5
(g6
g7
Ntp440
Rp441
(dp442
g11
g5
(g12
g13
(dp443
g127
F1.0
stp444
Rp445
sg18
I-4606935264605141194
sbtp446
Rp447
sg132
g4
(g79
(g80
(I0
tp448
g82
tp449
Rp450
(I1
(tg89
I00
S'\xf6(\\\x8f\xc2\xf5\xd8?'
p451
tp452
bg5
(g6
g7
Ntp453
Rp454
(dp455
g11
g5
(g12
g13
(dp456
g142
F-1.0
sg98
F1.0
stp457
Rp458
sg18
I-2553330628009308297
sbtp459
Rp460
sg147
g4
(F3.0
g5
(g6
g7
Ntp461
Rp462
(dp463
g11
g5
(g12
g13
(dp464
g58
F1.0
stp465
Rp466
sg18
I-8637397557623547456
sbtp467
Rp468
sg156
g4
(g157
(g89
S'E\xd8\xf0\xf4J\xd9%\xc0'
p469
tp470
Rp471
g162
tp472
Rp473
sbag5
(g74
g7
Ntp474
Rp475
(dp476
g78
g4
(g79
(g80
(I0
tp477
g82
tp478
Rp479
(I1
(I1
tp480
g89
I00
S'\xd0\xfaJ\xd6\x97[\xd0>'
p481
tp482
bg95
tp483
Rp484
sg103
g4
(F240.0
g5
(g6
g7
Ntp485
Rp486
(dp487
g11
g5
(g12
g13
(dp488
g58
F1.0
stp489
Rp490
sg18
I-8637397557623547456
sbtp491
Rp492
sg112
I7
sg113
g4
(F5.0
g5
(g6
g7
Ntp493
Rp494
(dp495
g11
g5
(g12
g13
(dp496
g58
F1.0
stp497
Rp498
sg18
I-8637397557623547456
sbtp499
Rp500
sg122
g4
(F10.0
g5
(g6
g7
Ntp501
Rp502
(dp503
g11
g5
(g12
g13
(dp504
g127
F1.0
stp505
Rp506
sg18
I-4606935264605141194
sbtp507
Rp508
sg132
g4
(g79
(g80
(I0
tp509
g82
tp510
Rp511
(I1
(tg89
I00
S'\xf6(\\\x8f\xc2\xf5\xd8?'
p512
tp513
bg5
(g6
g7
Ntp514
Rp515
(dp516
g11
g5
(g12
g13
(dp517
g142
F-1.0
sg98
F1.0
stp518
Rp519
sg18
I-2553330628009308297
sbtp520
Rp521
sg147
g4
(F3.0
g5
(g6
g7
Ntp522
Rp523
(dp524
g11
g5
(g12
g13
(dp525
g58
F1.0
stp526
Rp527
sg18
I-8637397557623547456
sbtp528
Rp529
sg156
g4
(g157
(g89
S'k\x0e\x10\xcc\xd1#\x1b\xc0'
p530
tp531
Rp532
g162
tp533
Rp534
sbag5
(g74
g7
Ntp535
Rp536
(dp537
g78
g4
(g79
(g80
(I0
tp538
g82
tp539
Rp540
(I1
(I1
tp541
g89
I00
S'\xd0\xfaJ\xd6\x97[\xd0>'
p542
tp543
bg95
tp544
Rp545
sg103
g4
(F240.0
g5
(g6
g7
Ntp546
Rp547
(dp548
g11
g5
(g12
g13
(dp549
g58
F1.0
stp550
Rp551
sg18
I-8637397557623547456
sbtp552
Rp553
sg112
I8
sg113
g4
(F5.0
g5
(g6
g7
Ntp554
Rp555
(dp556
g11
g5
(g12
g13
(dp557
g58
F1.0
stp558
Rp559
sg18
I-8637397557623547456
sbtp560
Rp561
sg122
g4
(F10.0
g5
(g6
g7
Ntp562
Rp563
(dp564
g11
g5
(g12
g13
(dp565
g127
F1.0
stp566
Rp567
sg18
I-4606935264605141194
sbtp568
Rp569
sg132
g4
(g79
(g80
(I0
tp570
g82
tp571
Rp572
(I1
(tg89
I00
S'\xf6(\\\x8f\xc2\xf5\xd8?'
p573
tp574
bg5
(g6
g7
Ntp575
Rp576
(dp577
g11
g5
(g12
g13
(dp578
g142
F-1.0
sg98
F1.0
stp579
Rp580
sg18
I-2553330628009308297
sbtp581
Rp582
sg147
g4
(F3.0
g5
(g6
g7
Ntp583
Rp584
(dp585
g11
g5
(g12
g13
(dp586
g58
F1.0
stp587
Rp588
sg18
I-8637397557623547456
sbtp589
Rp590
sg156
g4
(g157
(g89
S'\xea[\xe6tYl\x11\xc0'
p591
tp592
Rp593
g162
tp594
Rp595
sbag5
(g74
g7
Ntp596
Rp597
(dp598
g78
g4
(g79
(g80
(I0
tp599
g82
tp600
Rp601
(I1
(I1
tp602
g89
I00
S'\xd0\xfaJ\xd6\x97[\xd0>'
p603
tp604
bg95
tp605
Rp606
sg103
g4
(F240.0
g5
(g6
g7
Ntp607
Rp608
(dp609
g11
g5
(g12
g13
(dp610
g58
F1.0
stp611
Rp612
sg18
I-8637397557623547456
sbtp613
Rp614
sg112
I9
sg113
g4
(F5.0
g5
(g6
g7
Ntp615
Rp616
(dp617
g11
g5
(g12
g13
(dp618
g58
F1.0
stp619
Rp620
sg18
I-8637397557623547456
sbtp621
Rp622
sg122
g4
(F10.0
g5
(g6
g7
Ntp623
Rp624
(dp625
g11
g5
(g12
g13
(dp626
g127
F1.0
stp627
Rp628
sg18
I-4606935264605141194
sbtp629
Rp630
sg132
g4
(g79
(g80
(I0
tp631
g82
tp632
Rp633
(I1
(tg89
I00
S'\xf6(\\\x8f\xc2\xf5\xd8?'
p634
tp635
bg5
(g6
g7
Ntp636
Rp637
(dp638
g11
g5
(g12
g13
(dp639
g142
F-1.0
sg98
F1.0
stp640
Rp641
sg18
I-2553330628009308297
sbtp642
Rp643
sg147
g4
(F3.0
g5
(g6
g7
Ntp644
Rp645
(dp646
g11
g5
(g12
g13
(dp647
g58
F1.0
stp648
Rp649
sg18
I-8637397557623547456
sbtp650
Rp651
sg156
g4
(g157
(g89
S'0\xc0>:ue\x05\xc0'
p652
tp653
Rp654
g162
tp655
Rp656
sbag5
(g74
g7
Ntp657
Rp658
(dp659
g78
g4
(g79
(g80
(I0
tp660
g82
tp661
Rp662
(I1
(I1
tp663
g89
I00
S'\xd0\xfaJ\xd6\x97[\xd0>'
p664
tp665
bg95
tp666
Rp667
sg103
g4
(F240.0
g5
(g6
g7
Ntp668
Rp669
(dp670
g11
g5
(g12
g13
(dp671
g58
F1.0
stp672
Rp673
sg18
I-8637397557623547456
sbtp674
Rp675
sg112
I10
sg113
g4
(F5.0
g5
(g6
g7
Ntp676
Rp677
(dp678
g11
g5
(g12
g13
(dp679
g58
F1.0
stp680
Rp681
sg18
I-8637397557623547456
sbtp682
Rp683
sg122
g4
(F10.0
g5
(g6
g7
Ntp684
Rp685
(dp686
g11
g5
(g12
g13
(dp687
g127
F1.0
stp688
Rp689
sg18
I-4606935264605141194
sbtp690
Rp691
sg132
g4
(g79
(g80
(I0
tp692
g82
tp693
Rp694
(I1
(tg89
I00
S'\xf6(\\\x8f\xc2\xf5\xd8?'
p695
tp696
bg5
(g6
g7
Ntp697
Rp698
(dp699
g11
g5
(g12
g13
(dp700
g142
F-1.0
sg98
F1.0
stp701
Rp702
sg18
I-2553330628009308297
sbtp703
Rp704
sg147
g4
(F3.0
g5
(g6
g7
Ntp705
Rp706
(dp707
g11
g5
(g12
g13
(dp708
g58
F1.0
stp709
Rp710
sg18
I-8637397557623547456
sbtp711
Rp712
sg156
g4
(g157
(g89
S'\xf2\xea\x1c\x03\xb2W\x01\xc0'
p713
tp714
Rp715
g162
tp716
Rp717
sbag5
(g74
g7
Ntp718
Rp719
(dp720
g78
g4
(g79
(g80
(I0
tp721
g82
tp722
Rp723
(I1
(I1
tp724
g89
I00
S'\xd0\xfaJ\xd6\x97[\xd0>'
p725
tp726
bg95
tp727
Rp728
sg103
g4
(F240.0
g5
(g6
g7
Ntp729
Rp730
(dp731
g11
g5
(g12
g13
(dp732
g58
F1.0
stp733
Rp734
sg18
I-8637397557623547456
sbtp735
Rp736
sg112
I11
sg113
g4
(F5.0
g5
(g6
g7
Ntp737
Rp738
(dp739
g11
g5
(g12
g13
(dp740
g58
F1.0
stp741
Rp742
sg18
I-8637397557623547456
sbtp743
Rp744
sg122
g4
(F10.0
g5
(g6
g7
Ntp745
Rp746
(dp747
g11
g5
(g12
g13
(dp748
g127
F1.0
stp749
Rp750
sg18
I-4606935264605141194
sbtp751
Rp752
sg132
g4
(g79
(g80
(I0
tp753
g82
tp754
Rp755
(I1
(tg89
I00
S'\xf6(\\\x8f\xc2\xf5\xd8?'
p756
tp757
bg5
(g6
g7
Ntp758
Rp759
(dp760
g11
g5
(g12
g13
(dp761
g142
F-1.0
sg98
F1.0
stp762
Rp763
sg18
I-2553330628009308297
sbtp764
Rp765
sg147
g4
(F3.0
g5
(g6
g7
Ntp766
Rp767
(dp768
g11
g5
(g12
g13
(dp769
g58
F1.0
stp770
Rp771
sg18
I-8637397557623547456
sbtp772
Rp773
sg156
g4
(g157
(g89
S'\x06\r\xfd\x13\\l\x02\xc0'
p774
tp775
Rp776
g162
tp777
Rp778
sbag5
(g74
g7
Ntp779
Rp780
(dp781
g78
g4
(g79
(g80
(I0
tp782
g82
tp783
Rp784
(I1
(I1
tp785
g89
I00
S'\xd0\xfaJ\xd6\x97[\xd0>'
p786
tp787
bg95
tp788
Rp789
sg103
g4
(F240.0
g5
(g6
g7
Ntp790
Rp791
(dp792
g11
g5
(g12
g13
(dp793
g58
F1.0
stp794
Rp795
sg18
I-8637397557623547456
sbtp796
Rp797
sg112
I12
sg113
g4
(F5.0
g5
(g6
g7
Ntp798
Rp799
(dp800
g11
g5
(g12
g13
(dp801
g58
F1.0
stp802
Rp803
sg18
I-8637397557623547456
sbtp804
Rp805
sg122
g4
(F10.0
g5
(g6
g7
Ntp806
Rp807
(dp808
g11
g5
(g12
g13
(dp809
g127
F1.0
stp810
Rp811
sg18
I-4606935264605141194
sbtp812
Rp813
sg132
g4
(g79
(g80
(I0
tp814
g82
tp815
Rp816
(I1
(tg89
I00
S'\xf6(\\\x8f\xc2\xf5\xd8?'
p817
tp818
bg5
(g6
g7
Ntp819
Rp820
(dp821
g11
g5
(g12
g13
(dp822
g142
F-1.0
sg98
F1.0
stp823
Rp824
sg18
I-2553330628009308297
sbtp825
Rp826
sg147
g4
(F3.0
g5
(g6
g7
Ntp827
Rp828
(dp829
g11
g5
(g12
g13
(dp830
g58
F1.0
stp831
Rp832
sg18
I-8637397557623547456
sbtp833
Rp834
sg156
g4
(g157
(g89
S'\n\xbf\xd4\xcf\x9b\n\xfb\xbf'
p835
tp836
Rp837
g162
tp838
Rp839
sbag5
(g74
g7
Ntp840
Rp841
(dp842
g78
g4
(g79
(g80
(I0
tp843
g82
tp844
Rp845
(I1
(I1
tp846
g89
I00
S'\xd0\xfaJ\xd6\x97[\xd0>'
p847
tp848
bg95
tp849
Rp850
sg103
g4
(F240.0
g5
(g6
g7
Ntp851
Rp852
(dp853
g11
g5
(g12
g13
(dp854
g58
F1.0
stp855
Rp856
sg18
I-8637397557623547456
sbtp857
Rp858
sg112
I13
sg113
g4
(F5.0
g5
(g6
g7
Ntp859
Rp860
(dp861
g11
g5
(g12
g13
(dp862
g58
F1.0
stp863
Rp864
sg18
I-8637397557623547456
sbtp865
Rp866
sg122
g4
(F10.0
g5
(g6
g7
Ntp867
Rp868
(dp869
g11
g5
(g12
g13
(dp870
g127
F1.0
stp871
Rp872
sg18
I-4606935264605141194
sbtp873
Rp874
sg132
g4
(g79
(g80
(I0
tp875
g82
tp876
Rp877
(I1
(tg89
I00
S'\xf6(\\\x8f\xc2\xf5\xd8?'
p878
tp879
bg5
(g6
g7
Ntp880
Rp881
(dp882
g11
g5
(g12
g13
(dp883
g142
F-1.0
sg98
F1.0
stp884
Rp885
sg18
I-2553330628009308297
sbtp886
Rp887
sg147
g4
(F3.0
g5
(g6
g7
Ntp888
Rp889
(dp890
g11
g5
(g12
g13
(dp891
g58
F1.0
stp892
Rp893
sg18
I-8637397557623547456
sbtp894
Rp895
sg156
g4
(g157
(g89
S'w\xf8k\xb2F=\xe8\xbf'
p896
tp897
Rp898
g162
tp899
Rp900
sbag5
(g74
g7
Ntp901
Rp902
(dp903
g78
g4
(g79
(g80
(I0
tp904
g82
tp905
Rp906
(I1
(I1
tp907
g89
I00
S'\xd0\xfaJ\xd6\x97[\xd0>'
p908
tp909
bg95
tp910
Rp911
sg103
g4
(F240.0
g5
(g6
g7
Ntp912
Rp913
(dp914
g11
g5
(g12
g13
(dp915
g58
F1.0
stp916
Rp917
sg18
I-8637397557623547456
sbtp918
Rp919
sg112
I14
sg113
g4
(F5.0
g5
(g6
g7
Ntp920
Rp921
(dp922
g11
g5
(g12
g13
(dp923
g58
F1.0
stp924
Rp925
sg18
I-8637397557623547456
sbtp926
Rp927
sg122
g4
(F10.0
g5
(g6
g7
Ntp928
Rp929
(dp930
g11
g5
(g12
g13
(dp931
g127
F1.0
stp932
Rp933
sg18
I-4606935264605141194
sbtp934
Rp935
sg132
g4
(g79
(g80
(I0
tp936
g82
tp937
Rp938
(I1
(tg89
I00
S'\xf6(\\\x8f\xc2\xf5\xd8?'
p939
tp940
bg5
(g6
g7
Ntp941
Rp942
(dp943
g11
g5
(g12
g13
(dp944
g142
F-1.0
sg98
F1.0
stp945
Rp946
sg18
I-2553330628009308297
sbtp947
Rp948
sg147
g4
(F3.0
g5
(g6
g7
Ntp949
Rp950
(dp951
g11
g5
(g12
g13
(dp952
g58
F1.0
stp953
Rp954
sg18
I-8637397557623547456
sbtp955
Rp956
sg156
g4
(g157
(g89
S',\xf1\x80\xb2)\xd7\xf6\xbf'
p957
tp958
Rp959
g162
tp960
Rp961
sbasS'jacket_temperature'
p962
NsS'filter_period_end_time'
p963
NsS'syringe_concentration'
p964
(dp965
S'ligand'
p966
g4
(F0.39
g5
(g6
g7
Ntp967
Rp968
(dp969
g11
g5
(g12
g13
(dp970
g142
F-1.0
sg98
F1.0
stp971
Rp972
sg18
I-2553330628009308297
sbtp973
Rp974
ssS'heat'
p975
(lp976
sS'data_filename'
p977
S'/home/tnguye46/bayesian_itc/ABRF_MIRG02/3.dummy_itc_files/1_MCS-ITC.itc'
p978
sS'stir_speed'
p979
NsS'data_source'
p980
g978
sS'cell_concentration'
p981
(dp982
S'macromolecule'
p983
g4
(F0.016
g5
(g6
g7
Ntp984
Rp985
(dp986
g11
g5
(g12
g13
(dp987
g142
F-1.0
sg98
F1.0
stp988
Rp989
sg18
I-2553330628009308297
sbtp990
Rp991
ssS'name'
p992
S'1_MCS-ITC'
p993
sS'cell_temperature'
p994
g4
(g79
(g80
(I0
tp995
g82
tp996
Rp997
(I1
(I14
tp998
g89
I00
S'fffff\xa2r@fffff\xa2r@fffff\xa2r@fffff\xa2r@fffff\xa2r@fffff\xa2r@fffff\xa2r@fffff\xa2r@fffff\xa2r@fffff\xa2r@fffff\xa2r@fffff\xa2r@fffff\xa2r@fffff\xa2r@'
p999
tp1000
bg5
(g6
g7
Ntp1001
Rp1002
(dp1003
g11
g5
(g12
g13
(dp1004
g15
F1.0
stp1005
Rp1006
sg18
I6369073192305681123
sbtp1007
Rp1008
sS'equilibration_time'
p1009
g4
(I180
g5
(g6
g7
Ntp1010
Rp1011
(dp1012
g11
g5
(g12
g13
(dp1013
g58
F1.0
stp1014
Rp1015
sg18
I-8637397557623547456
sbtp1016
Rp1017
sS'time'
p1018
(lp1019
s.