(dp0
S'filter_period_midpoint_time'
p1
NsS'differential_power'
p2
NsS'target_temperature'
p3
cpint
_build_quantity
p4
(F298.15
ccopy_reg
_reconstructor
p5
(cpint.util
UnitsContainer
p6
c__builtin__
object
p7
Ntp8
Rp9
(dp10
V_d
p11
g5
(cpint.util
udict
p12
c__builtin__
dict
p13
(dp14
Vkelvin
p15
F1.0
stp16
Rp17
sV_hash
p18
I6369073192305681123
sbtp19
Rp20
sS'stir_rate'
p21
g4
(I300
g5
(g6
g7
Ntp22
Rp23
(dp24
g11
g5
(g12
g13
(dp25
Vrevolutions_per_minute
p26
F1.0
stp27
Rp28
sg18
I-9069124146733934765
sbtp29
Rp30
sS'temperature'
p31
(lp32
sS'number_of_injections'
p33
I104
sS'instrument'
p34
g5
(cbitc.instruments
Instrument
p35
g7
Ntp36
Rp37
(dp38
S'V0'
p39
g4
(F1.434
g5
(g6
g7
Ntp40
Rp41
(dp42
g11
g5
(g12
g13
(dp43
Vmilliliter
p44
F1.0
stp45
Rp46
sg18
I-2568644798021485481
sbtp47
Rp48
sS'V_correction'
p49
F0.0
sS'description'
p50
S''
p51
sbsS'reference_power'
p52
g4
(F5.0
g5
(g6
g7
Ntp53
Rp54
(dp55
g11
g5
(g12
g13
(dp56
Vmicrocal
p57
F1.0
sVsecond
p58
F-1.0
stp59
Rp60
sg18
I653647005797199061
sbtp61
Rp62
sS'cell_volume'
p63
g4
(F1.434
g5
(g6
g7
Ntp64
Rp65
(dp66
g11
g5
(g12
g13
(dp67
g44
F1.0
stp68
Rp69
sg18
I-2568644798021485481
sbtp70
Rp71
sS'injections'
p72
(lp73
g5
(cbitc.experiments
Injection
p74
g7
Ntp75
Rp76
(dp77
S'titrant'
p78
g4
(cnumpy.core.multiarray
_reconstruct
p79
(cnumpy
ndarray
p80
(I0
tp81
S'b'
p82
tp83
Rp84
(I1
(I1
tp85
cnumpy
dtype
p86
(S'f8'
p87
I0
I1
tp88
Rp89
(I3
S'<'
p90
NNNI-1
I-1
I0
tp91
bI00
S's\xc9\xdb\x8b\x14<\xc8>'
p92
tp93
bg5
(g6
g7
Ntp94
Rp95
(dp96
g11
g5
(g12
g13
(dp97
Vmillimole
p98
F1.0
stp99
Rp100
sg18
I-3231288464854266307
sbtp101
Rp102
sS'spacing'
p103
g4
(F240.0
g5
(g6
g7
Ntp104
Rp105
(dp106
g11
g5
(g12
g13
(dp107
g58
F1.0
stp108
Rp109
sg18
I-8637397557623547456
sbtp110
Rp111
sS'number'
p112
I1
sS'filter_period'
p113
g4
(F5.0
g5
(g6
g7
Ntp114
Rp115
(dp116
g11
g5
(g12
g13
(dp117
g58
F1.0
stp118
Rp119
sg18
I-8637397557623547456
sbtp120
Rp121
sS'volume'
p122
g4
(F4.5
g5
(g6
g7
Ntp123
Rp124
(dp125
g11
g5
(g12
g13
(dp126
Vmicroliter
p127
F1.0
stp128
Rp129
sg18
I-4606935264605141194
sbtp130
Rp131
sS'titrant_concentration'
p132
g4
(g79
(g80
(I0
tp133
g82
tp134
Rp135
(I1
(tg89
I00
S'%\x06\x81\x95C\x8b\xe4?'
p136
tp137
bg5
(g6
g7
Ntp138
Rp139
(dp140
g11
g5
(g12
g13
(dp141
Vliter
p142
F-1.0
sg98
F1.0
stp143
Rp144
sg18
I-2553330628009308297
sbtp145
Rp146
sS'duration'
p147
g4
(F3.0
g5
(g6
g7
Ntp148
Rp149
(dp150
g11
g5
(g12
g13
(dp151
g58
F1.0
stp152
Rp153
sg18
I-8637397557623547456
sbtp154
Rp155
sS'evolved_heat'
p156
g4
(cnumpy.core.multiarray
scalar
p157
(g89
S'\x10\xcc\xd1\xe3\xf7\xae1\xc0'
p158
tp159
Rp160
g5
(g6
g7
Ntp161
Rp162
(dp163
g11
g5
(g12
g13
(dp164
g57
F1.0
stp165
Rp166
sg18
I4447981639521838742
sbtp167
Rp168
sbag5
(g74
g7
Ntp169
Rp170
(dp171
g78
g4
(g79
(g80
(I0
tp172
g82
tp173
Rp174
(I1
(I1
tp175
g89
I00
S's\xc9\xdb\x8b\x14<\xc8>'
p176
tp177
bg95
tp178
Rp179
sg103
g4
(F240.0
g5
(g6
g7
Ntp180
Rp181
(dp182
g11
g5
(g12
g13
(dp183
g58
F1.0
stp184
Rp185
sg18
I-8637397557623547456
sbtp186
Rp187
sg112
I2
sg113
g4
(F5.0
g5
(g6
g7
Ntp188
Rp189
(dp190
g11
g5
(g12
g13
(dp191
g58
F1.0
stp192
Rp193
sg18
I-8637397557623547456
sbtp194
Rp195
sg122
g4
(F4.5
g5
(g6
g7
Ntp196
Rp197
(dp198
g11
g5
(g12
g13
(dp199
g127
F1.0
stp200
Rp201
sg18
I-4606935264605141194
sbtp202
Rp203
sg132
g4
(g79
(g80
(I0
tp204
g82
tp205
Rp206
(I1
(tg89
I00
S'%\x06\x81\x95C\x8b\xe4?'
p207
tp208
bg5
(g6
g7
Ntp209
Rp210
(dp211
g11
g5
(g12
g13
(dp212
g142
F-1.0
sg98
F1.0
stp213
Rp214
sg18
I-2553330628009308297
sbtp215
Rp216
sg147
g4
(F3.0
g5
(g6
g7
Ntp217
Rp218
(dp219
g11
g5
(g12
g13
(dp220
g58
F1.0
stp221
Rp222
sg18
I-8637397557623547456
sbtp223
Rp224
sg156
g4
(g157
(g89
S';\x19\x1c%\xafF5\xc0'
p225
tp226
Rp227
g162
tp228
Rp229
sbag5
(g74
g7
Ntp230
Rp231
(dp232
g78
g4
(g79
(g80
(I0
tp233
g82
tp234
Rp235
(I1
(I1
tp236
g89
I00
S's\xc9\xdb\x8b\x14<\xc8>'
p237
tp238
bg95
tp239
Rp240
sg103
g4
(F240.0
g5
(g6
g7
Ntp241
Rp242
(dp243
g11
g5
(g12
g13
(dp244
g58
F1.0
stp245
Rp246
sg18
I-8637397557623547456
sbtp247
Rp248
sg112
I3
sg113
g4
(F5.0
g5
(g6
g7
Ntp249
Rp250
(dp251
g11
g5
(g12
g13
(dp252
g58
F1.0
stp253
Rp254
sg18
I-8637397557623547456
sbtp255
Rp256
sg122
g4
(F4.5
g5
(g6
g7
Ntp257
Rp258
(dp259
g11
g5
(g12
g13
(dp260
g127
F1.0
stp261
Rp262
sg18
I-4606935264605141194
sbtp263
Rp264
sg132
g4
(g79
(g80
(I0
tp265
g82
tp266
Rp267
(I1
(tg89
I00
S'%\x06\x81\x95C\x8b\xe4?'
p268
tp269
bg5
(g6
g7
Ntp270
Rp271
(dp272
g11
g5
(g12
g13
(dp273
g142
F-1.0
sg98
F1.0
stp274
Rp275
sg18
I-2553330628009308297
sbtp276
Rp277
sg147
g4
(F3.0
g5
(g6
g7
Ntp278
Rp279
(dp280
g11
g5
(g12
g13
(dp281
g58
F1.0
stp282
Rp283
sg18
I-8637397557623547456
sbtp284
Rp285
sg156
g4
(g157
(g89
S'\x06\x9e{\x0f\x97\xec4\xc0'
p286
tp287
Rp288
g162
tp289
Rp290
sbag5
(g74
g7
Ntp291
Rp292
(dp293
g78
g4
(g79
(g80
(I0
tp294
g82
tp295
Rp296
(I1
(I1
tp297
g89
I00
S's\xc9\xdb\x8b\x14<\xc8>'
p298
tp299
bg95
tp300
Rp301
sg103
g4
(F240.0
g5
(g6
g7
Ntp302
Rp303
(dp304
g11
g5
(g12
g13
(dp305
g58
F1.0
stp306
Rp307
sg18
I-8637397557623547456
sbtp308
Rp309
sg112
I4
sg113
g4
(F5.0
g5
(g6
g7
Ntp310
Rp311
(dp312
g11
g5
(g12
g13
(dp313
g58
F1.0
stp314
Rp315
sg18
I-8637397557623547456
sbtp316
Rp317
sg122
g4
(F4.5
g5
(g6
g7
Ntp318
Rp319
(dp320
g11
g5
(g12
g13
(dp321
g127
F1.0
stp322
Rp323
sg18
I-4606935264605141194
sbtp324
Rp325
sg132
g4
(g79
(g80
(I0
tp326
g82
tp327
Rp328
(I1
(tg89
I00
S'%\x06\x81\x95C\x8b\xe4?'
p329
tp330
bg5
(g6
g7
Ntp331
Rp332
(dp333
g11
g5
(g12
g13
(dp334
g142
F-1.0
sg98
F1.0
stp335
Rp336
sg18
I-2553330628009308297
sbtp337
Rp338
sg147
g4
(F3.0
g5
(g6
g7
Ntp339
Rp340
(dp341
g11
g5
(g12
g13
(dp342
g58
F1.0
stp343
Rp344
sg18
I-8637397557623547456
sbtp345
Rp346
sg156
g4
(g157
(g89
S'\xe9}\xe3k\xcf\xdc3\xc0'
p347
tp348
Rp349
g162
tp350
Rp351
sbag5
(g74
g7
Ntp352
Rp353
(dp354
g78
g4
(g79
(g80
(I0
tp355
g82
tp356
Rp357
(I1
(I1
tp358
g89
I00
S's\xc9\xdb\x8b\x14<\xc8>'
p359
tp360
bg95
tp361
Rp362
sg103
g4
(F240.0
g5
(g6
g7
Ntp363
Rp364
(dp365
g11
g5
(g12
g13
(dp366
g58
F1.0
stp367
Rp368
sg18
I-8637397557623547456
sbtp369
Rp370
sg112
I5
sg113
g4
(F5.0
g5
(g6
g7
Ntp371
Rp372
(dp373
g11
g5
(g12
g13
(dp374
g58
F1.0
stp375
Rp376
sg18
I-8637397557623547456
sbtp377
Rp378
sg122
g4
(F4.5
g5
(g6
g7
Ntp379
Rp380
(dp381
g11
g5
(g12
g13
(dp382
g127
F1.0
stp383
Rp384
sg18
I-4606935264605141194
sbtp385
Rp386
sg132
g4
(g79
(g80
(I0
tp387
g82
tp388
Rp389
(I1
(tg89
I00
S'%\x06\x81\x95C\x8b\xe4?'
p390
tp391
bg5
(g6
g7
Ntp392
Rp393
(dp394
g11
g5
(g12
g13
(dp395
g142
F-1.0
sg98
F1.0
stp396
Rp397
sg18
I-2553330628009308297
sbtp398
Rp399
sg147
g4
(F3.0
g5
(g6
g7
Ntp400
Rp401
(dp402
g11
g5
(g12
g13
(dp403
g58
F1.0
stp404
Rp405
sg18
I-8637397557623547456
sbtp406
Rp407
sg156
g4
(g157
(g89
S'\xabx#\xf3\xc8\xe73\xc0'
p408
tp409
Rp410
g162
tp411
Rp412
sbag5
(g74
g7
Ntp413
Rp414
(dp415
g78
g4
(g79
(g80
(I0
tp416
g82
tp417
Rp418
(I1
(I1
tp419
g89
I00
S's\xc9\xdb\x8b\x14<\xc8>'
p420
tp421
bg95
tp422
Rp423
sg103
g4
(F240.0
g5
(g6
g7
Ntp424
Rp425
(dp426
g11
g5
(g12
g13
(dp427
g58
F1.0
stp428
Rp429
sg18
I-8637397557623547456
sbtp430
Rp431
sg112
I6
sg113
g4
(F5.0
g5
(g6
g7
Ntp432
Rp433
(dp434
g11
g5
(g12
g13
(dp435
g58
F1.0
stp436
Rp437
sg18
I-8637397557623547456
sbtp438
Rp439
sg122
g4
(F4.5
g5
(g6
g7
Ntp440
Rp441
(dp442
g11
g5
(g12
g13
(dp443
g127
F1.0
stp444
Rp445
sg18
I-4606935264605141194
sbtp446
Rp447
sg132
g4
(g79
(g80
(I0
tp448
g82
tp449
Rp450
(I1
(tg89
I00
S'%\x06\x81\x95C\x8b\xe4?'
p451
tp452
bg5
(g6
g7
Ntp453
Rp454
(dp455
g11
g5
(g12
g13
(dp456
g142
F-1.0
sg98
F1.0
stp457
Rp458
sg18
I-2553330628009308297
sbtp459
Rp460
sg147
g4
(F3.0
g5
(g6
g7
Ntp461
Rp462
(dp463
g11
g5
(g12
g13
(dp464
g58
F1.0
stp465
Rp466
sg18
I-8637397557623547456
sbtp467
Rp468
sg156
g4
(g157
(g89
S'K\xb08\x9c\xf9\xb53\xc0'
p469
tp470
Rp471
g162
tp472
Rp473
sbag5
(g74
g7
Ntp474
Rp475
(dp476
g78
g4
(g79
(g80
(I0
tp477
g82
tp478
Rp479
(I1
(I1
tp480
g89
I00
S's\xc9\xdb\x8b\x14<\xc8>'
p481
tp482
bg95
tp483
Rp484
sg103
g4
(F240.0
g5
(g6
g7
Ntp485
Rp486
(dp487
g11
g5
(g12
g13
(dp488
g58
F1.0
stp489
Rp490
sg18
I-8637397557623547456
sbtp491
Rp492
sg112
I7
sg113
g4
(F5.0
g5
(g6
g7
Ntp493
Rp494
(dp495
g11
g5
(g12
g13
(dp496
g58
F1.0
stp497
Rp498
sg18
I-8637397557623547456
sbtp499
Rp500
sg122
g4
(F4.5
g5
(g6
g7
Ntp501
Rp502
(dp503
g11
g5
(g12
g13
(dp504
g127
F1.0
stp505
Rp506
sg18
I-4606935264605141194
sbtp507
Rp508
sg132
g4
(g79
(g80
(I0
tp509
g82
tp510
Rp511
(I1
(tg89
I00
S'%\x06\x81\x95C\x8b\xe4?'
p512
tp513
bg5
(g6
g7
Ntp514
Rp515
(dp516
g11
g5
(g12
g13
(dp517
g142
F-1.0
sg98
F1.0
stp518
Rp519
sg18
I-2553330628009308297
sbtp520
Rp521
sg147
g4
(F3.0
g5
(g6
g7
Ntp522
Rp523
(dp524
g11
g5
(g12
g13
(dp525
g58
F1.0
stp526
Rp527
sg18
I-8637397557623547456
sbtp528
Rp529
sg156
g4
(g157
(g89
S'`YiR\n\xa23\xc0'
p530
tp531
Rp532
g162
tp533
Rp534
sbag5
(g74
g7
Ntp535
Rp536
(dp537
g78
g4
(g79
(g80
(I0
tp538
g82
tp539
Rp540
(I1
(I1
tp541
g89
I00
S's\xc9\xdb\x8b\x14<\xc8>'
p542
tp543
bg95
tp544
Rp545
sg103
g4
(F240.0
g5
(g6
g7
Ntp546
Rp547
(dp548
g11
g5
(g12
g13
(dp549
g58
F1.0
stp550
Rp551
sg18
I-8637397557623547456
sbtp552
Rp553
sg112
I8
sg113
g4
(F5.0
g5
(g6
g7
Ntp554
Rp555
(dp556
g11
g5
(g12
g13
(dp557
g58
F1.0
stp558
Rp559
sg18
I-8637397557623547456
sbtp560
Rp561
sg122
g4
(F4.5
g5
(g6
g7
Ntp562
Rp563
(dp564
g11
g5
(g12
g13
(dp565
g127
F1.0
stp566
Rp567
sg18
I-4606935264605141194
sbtp568
Rp569
sg132
g4
(g79
(g80
(I0
tp570
g82
tp571
Rp572
(I1
(tg89
I00
S'%\x06\x81\x95C\x8b\xe4?'
p573
tp574
bg5
(g6
g7
Ntp575
Rp576
(dp577
g11
g5
(g12
g13
(dp578
g142
F-1.0
sg98
F1.0
stp579
Rp580
sg18
I-2553330628009308297
sbtp581
Rp582
sg147
g4
(F3.0
g5
(g6
g7
Ntp583
Rp584
(dp585
g11
g5
(g12
g13
(dp586
g58
F1.0
stp587
Rp588
sg18
I-8637397557623547456
sbtp589
Rp590
sg156
g4
(g157
(g89
S'K\x8e;\xa5\x83m1\xc0'
p591
tp592
Rp593
g162
tp594
Rp595
sbag5
(g74
g7
Ntp596
Rp597
(dp598
g78
g4
(g79
(g80
(I0
tp599
g82
tp600
Rp601
(I1
(I1
tp602
g89
I00
S's\xc9\xdb\x8b\x14<\xc8>'
p603
tp604
bg95
tp605
Rp606
sg103
g4
(F240.0
g5
(g6
g7
Ntp607
Rp608
(dp609
g11
g5
(g12
g13
(dp610
g58
F1.0
stp611
Rp612
sg18
I-8637397557623547456
sbtp613
Rp614
sg112
I9
sg113
g4
(F5.0
g5
(g6
g7
Ntp615
Rp616
(dp617
g11
g5
(g12
g13
(dp618
g58
F1.0
stp619
Rp620
sg18
I-8637397557623547456
sbtp621
Rp622
sg122
g4
(F4.5
g5
(g6
g7
Ntp623
Rp624
(dp625
g11
g5
(g12
g13
(dp626
g127
F1.0
stp627
Rp628
sg18
I-4606935264605141194
sbtp629
Rp630
sg132
g4
(g79
(g80
(I0
tp631
g82
tp632
Rp633
(I1
(tg89
I00
S'%\x06\x81\x95C\x8b\xe4?'
p634
tp635
bg5
(g6
g7
Ntp636
Rp637
(dp638
g11
g5
(g12
g13
(dp639
g142
F-1.0
sg98
F1.0
stp640
Rp641
sg18
I-2553330628009308297
sbtp642
Rp643
sg147
g4
(F3.0
g5
(g6
g7
Ntp644
Rp645
(dp646
g11
g5
(g12
g13
(dp647
g58
F1.0
stp648
Rp649
sg18
I-8637397557623547456
sbtp650
Rp651
sg156
g4
(g157
(g89
S'\x9d\x0c\x8e\x92W?0\xc0'
p652
tp653
Rp654
g162
tp655
Rp656
sbag5
(g74
g7
Ntp657
Rp658
(dp659
g78
g4
(g79
(g80
(I0
tp660
g82
tp661
Rp662
(I1
(I1
tp663
g89
I00
S's\xc9\xdb\x8b\x14<\xc8>'
p664
tp665
bg95
tp666
Rp667
sg103
g4
(F240.0
g5
(g6
g7
Ntp668
Rp669
(dp670
g11
g5
(g12
g13
(dp671
g58
F1.0
stp672
Rp673
sg18
I-8637397557623547456
sbtp674
Rp675
sg112
I10
sg113
g4
(F5.0
g5
(g6
g7
Ntp676
Rp677
(dp678
g11
g5
(g12
g13
(dp679
g58
F1.0
stp680
Rp681
sg18
I-8637397557623547456
sbtp682
Rp683
sg122
g4
(F4.5
g5
(g6
g7
Ntp684
Rp685
(dp686
g11
g5
(g12
g13
(dp687
g127
F1.0
stp688
Rp689
sg18
I-4606935264605141194
sbtp690
Rp691
sg132
g4
(g79
(g80
(I0
tp692
g82
tp693
Rp694
(I1
(tg89
I00
S'%\x06\x81\x95C\x8b\xe4?'
p695
tp696
bg5
(g6
g7
Ntp697
Rp698
(dp699
g11
g5
(g12
g13
(dp700
g142
F-1.0
sg98
F1.0
stp701
Rp702
sg18
I-2553330628009308297
sbtp703
Rp704
sg147
g4
(F3.0
g5
(g6
g7
Ntp705
Rp706
(dp707
g11
g5
(g12
g13
(dp708
g58
F1.0
stp709
Rp710
sg18
I-8637397557623547456
sbtp711
Rp712
sg156
g4
(g157
(g89
S';\x19\x1c%\xaf\x8e,\xc0'
p713
tp714
Rp715
g162
tp716
Rp717
sbag5
(g74
g7
Ntp718
Rp719
(dp720
g78
g4
(g79
(g80
(I0
tp721
g82
tp722
Rp723
(I1
(I1
tp724
g89
I00
S's\xc9\xdb\x8b\x14<\xc8>'
p725
tp726
bg95
tp727
Rp728
sg103
g4
(F240.0
g5
(g6
g7
Ntp729
Rp730
(dp731
g11
g5
(g12
g13
(dp732
g58
F1.0
stp733
Rp734
sg18
I-8637397557623547456
sbtp735
Rp736
sg112
I11
sg113
g4
(F5.0
g5
(g6
g7
Ntp737
Rp738
(dp739
g11
g5
(g12
g13
(dp740
g58
F1.0
stp741
Rp742
sg18
I-8637397557623547456
sbtp743
Rp744
sg122
g4
(F4.5
g5
(g6
g7
Ntp745
Rp746
(dp747
g11
g5
(g12
g13
(dp748
g127
F1.0
stp749
Rp750
sg18
I-4606935264605141194
sbtp751
Rp752
sg132
g4
(g79
(g80
(I0
tp753
g82
tp754
Rp755
(I1
(tg89
I00
S'%\x06\x81\x95C\x8b\xe4?'
p756
tp757
bg5
(g6
g7
Ntp758
Rp759
(dp760
g11
g5
(g12
g13
(dp761
g142
F-1.0
sg98
F1.0
stp762
Rp763
sg18
I-2553330628009308297
sbtp764
Rp765
sg147
g4
(F3.0
g5
(g6
g7
Ntp766
Rp767
(dp768
g11
g5
(g12
g13
(dp769
g58
F1.0
stp770
Rp771
sg18
I-8637397557623547456
sbtp772
Rp773
sg156
g4
(g157
(g89
S"\x93\x8c\x9c\x85=\xfd'\xc0"
p774
tp775
Rp776
g162
tp777
Rp778
sbag5
(g74
g7
Ntp779
Rp780
(dp781
g78
g4
(g79
(g80
(I0
tp782
g82
tp783
Rp784
(I1
(I1
tp785
g89
I00
S's\xc9\xdb\x8b\x14<\xc8>'
p786
tp787
bg95
tp788
Rp789
sg103
g4
(F240.0
g5
(g6
g7
Ntp790
Rp791
(dp792
g11
g5
(g12
g13
(dp793
g58
F1.0
stp794
Rp795
sg18
I-8637397557623547456
sbtp796
Rp797
sg112
I12
sg113
g4
(F5.0
g5
(g6
g7
Ntp798
Rp799
(dp800
g11
g5
(g12
g13
(dp801
g58
F1.0
stp802
Rp803
sg18
I-8637397557623547456
sbtp804
Rp805
sg122
g4
(F4.5
g5
(g6
g7
Ntp806
Rp807
(dp808
g11
g5
(g12
g13
(dp809
g127
F1.0
stp810
Rp811
sg18
I-4606935264605141194
sbtp812
Rp813
sg132
g4
(g79
(g80
(I0
tp814
g82
tp815
Rp816
(I1
(tg89
I00
S'%\x06\x81\x95C\x8b\xe4?'
p817
tp818
bg5
(g6
g7
Ntp819
Rp820
(dp821
g11
g5
(g12
g13
(dp822
g142
F-1.0
sg98
F1.0
stp823
Rp824
sg18
I-2553330628009308297
sbtp825
Rp826
sg147
g4
(F3.0
g5
(g6
g7
Ntp827
Rp828
(dp829
g11
g5
(g12
g13
(dp830
g58
F1.0
stp831
Rp832
sg18
I-8637397557623547456
sbtp833
Rp834
sg156
g4
(g157
(g89
S'\xbeje\xc2/e"\xc0'
p835
tp836
Rp837
g162
tp838
Rp839
sbag5
(g74
g7
Ntp840
Rp841
(dp842
g78
g4
(g79
(g80
(I0
tp843
g82
tp844
Rp845
(I1
(I1
tp846
g89
I00
S's\xc9\xdb\x8b\x14<\xc8>'
p847
tp848
bg95
tp849
Rp850
sg103
g4
(F240.0
g5
(g6
g7
Ntp851
Rp852
(dp853
g11
g5
(g12
g13
(dp854
g58
F1.0
stp855
Rp856
sg18
I-8637397557623547456
sbtp857
Rp858
sg112
I13
sg113
g4
(F5.0
g5
(g6
g7
Ntp859
Rp860
(dp861
g11
g5
(g12
g13
(dp862
g58
F1.0
stp863
Rp864
sg18
I-8637397557623547456
sbtp865
Rp866
sg122
g4
(F4.5
g5
(g6
g7
Ntp867
Rp868
(dp869
g11
g5
(g12
g13
(dp870
g127
F1.0
stp871
Rp872
sg18
I-4606935264605141194
sbtp873
Rp874
sg132
g4
(g79
(g80
(I0
tp875
g82
tp876
Rp877
(I1
(tg89
I00
S'%\x06\x81\x95C\x8b\xe4?'
p878
tp879
bg5
(g6
g7
Ntp880
Rp881
(dp882
g11
g5
(g12
g13
(dp883
g142
F-1.0
sg98
F1.0
stp884
Rp885
sg18
I-2553330628009308297
sbtp886
Rp887
sg147
g4
(F3.0
g5
(g6
g7
Ntp888
Rp889
(dp890
g11
g5
(g12
g13
(dp891
g58
F1.0
stp892
Rp893
sg18
I-8637397557623547456
sbtp894
Rp895
sg156
g4
(g157
(g89
S'Hm\xe2\xe4~\xa7\x1b\xc0'
p896
tp897
Rp898
g162
tp899
Rp900
sbag5
(g74
g7
Ntp901
Rp902
(dp903
g78
g4
(g79
(g80
(I0
tp904
g82
tp905
Rp906
(I1
(I1
tp907
g89
I00
S's\xc9\xdb\x8b\x14<\xc8>'
p908
tp909
bg95
tp910
Rp911
sg103
g4
(F240.0
g5
(g6
g7
Ntp912
Rp913
(dp914
g11
g5
(g12
g13
(dp915
g58
F1.0
stp916
Rp917
sg18
I-8637397557623547456
sbtp918
Rp919
sg112
I14
sg113
g4
(F5.0
g5
(g6
g7
Ntp920
Rp921
(dp922
g11
g5
(g12
g13
(dp923
g58
F1.0
stp924
Rp925
sg18
I-8637397557623547456
sbtp926
Rp927
sg122
g4
(F4.5
g5
(g6
g7
Ntp928
Rp929
(dp930
g11
g5
(g12
g13
(dp931
g127
F1.0
stp932
Rp933
sg18
I-4606935264605141194
sbtp934
Rp935
sg132
g4
(g79
(g80
(I0
tp936
g82
tp937
Rp938
(I1
(tg89
I00
S'%\x06\x81\x95C\x8b\xe4?'
p939
tp940
bg5
(g6
g7
Ntp941
Rp942
(dp943
g11
g5
(g12
g13
(dp944
g142
F-1.0
sg98
F1.0
stp945
Rp946
sg18
I-2553330628009308297
sbtp947
Rp948
sg147
g4
(F3.0
g5
(g6
g7
Ntp949
Rp950
(dp951
g11
g5
(g12
g13
(dp952
g58
F1.0
stp953
Rp954
sg18
I-8637397557623547456
sbtp955
Rp956
sg156
g4
(g157
(g89
S'YLl>\xaeM\x16\xc0'
p957
tp958
Rp959
g162
tp960
Rp961
sbag5
(g74
g7
Ntp962
Rp963
(dp964
g78
g4
(g79
(g80
(I0
tp965
g82
tp966
Rp967
(I1
(I1
tp968
g89
I00
S's\xc9\xdb\x8b\x14<\xc8>'
p969
tp970
bg95
tp971
Rp972
sg103
g4
(F240.0
g5
(g6
g7
Ntp973
Rp974
(dp975
g11
g5
(g12
g13
(dp976
g58
F1.0
stp977
Rp978
sg18
I-8637397557623547456
sbtp979
Rp980
sg112
I15
sg113
g4
(F5.0
g5
(g6
g7
Ntp981
Rp982
(dp983
g11
g5
(g12
g13
(dp984
g58
F1.0
stp985
Rp986
sg18
I-8637397557623547456
sbtp987
Rp988
sg122
g4
(F4.5
g5
(g6
g7
Ntp989
Rp990
(dp991
g11
g5
(g12
g13
(dp992
g127
F1.0
stp993
Rp994
sg18
I-4606935264605141194
sbtp995
Rp996
sg132
g4
(g79
(g80
(I0
tp997
g82
tp998
Rp999
(I1
(tg89
I00
S'%\x06\x81\x95C\x8b\xe4?'
p1000
tp1001
bg5
(g6
g7
Ntp1002
Rp1003
(dp1004
g11
g5
(g12
g13
(dp1005
g142
F-1.0
sg98
F1.0
stp1006
Rp1007
sg18
I-2553330628009308297
sbtp1008
Rp1009
sg147
g4
(F3.0
g5
(g6
g7
Ntp1010
Rp1011
(dp1012
g11
g5
(g12
g13
(dp1013
g58
F1.0
stp1014
Rp1015
sg18
I-8637397557623547456
sbtp1016
Rp1017
sg156
g4
(g157
(g89
S'\xf5-s\xba,\xe6\x11\xc0'
p1018
tp1019
Rp1020
g162
tp1021
Rp1022
sbag5
(g74
g7
Ntp1023
Rp1024
(dp1025
g78
g4
(g79
(g80
(I0
tp1026
g82
tp1027
Rp1028
(I1
(I1
tp1029
g89
I00
S's\xc9\xdb\x8b\x14<\xc8>'
p1030
tp1031
bg95
tp1032
Rp1033
sg103
g4
(F240.0
g5
(g6
g7
Ntp1034
Rp1035
(dp1036
g11
g5
(g12
g13
(dp1037
g58
F1.0
stp1038
Rp1039
sg18
I-8637397557623547456
sbtp1040
Rp1041
sg112
I16
sg113
g4
(F5.0
g5
(g6
g7
Ntp1042
Rp1043
(dp1044
g11
g5
(g12
g13
(dp1045
g58
F1.0
stp1046
Rp1047
sg18
I-8637397557623547456
sbtp1048
Rp1049
sg122
g4
(F4.5
g5
(g6
g7
Ntp1050
Rp1051
(dp1052
g11
g5
(g12
g13
(dp1053
g127
F1.0
stp1054
Rp1055
sg18
I-4606935264605141194
sbtp1056
Rp1057
sg132
g4
(g79
(g80
(I0
tp1058
g82
tp1059
Rp1060
(I1
(tg89
I00
S'%\x06\x81\x95C\x8b\xe4?'
p1061
tp1062
bg5
(g6
g7
Ntp1063
Rp1064
(dp1065
g11
g5
(g12
g13
(dp1066
g142
F-1.0
sg98
F1.0
stp1067
Rp1068
sg18
I-2553330628009308297
sbtp1069
Rp1070
sg147
g4
(F3.0
g5
(g6
g7
Ntp1071
Rp1072
(dp1073
g11
g5
(g12
g13
(dp1074
g58
F1.0
stp1075
Rp1076
sg18
I-8637397557623547456
sbtp1077
Rp1078
sg156
g4
(g157
(g89
S'\r7\xe0\xf3\xc3\xc8\x08\xc0'
p1079
tp1080
Rp1081
g162
tp1082
Rp1083
sbag5
(g74
g7
Ntp1084
Rp1085
(dp1086
g78
g4
(g79
(g80
(I0
tp1087
g82
tp1088
Rp1089
(I1
(I1
tp1090
g89
I00
S's\xc9\xdb\x8b\x14<\xc8>'
p1091
tp1092
bg95
tp1093
Rp1094
sg103
g4
(F240.0
g5
(g6
g7
Ntp1095
Rp1096
(dp1097
g11
g5
(g12
g13
(dp1098
g58
F1.0
stp1099
Rp1100
sg18
I-8637397557623547456
sbtp1101
Rp1102
sg112
I17
sg113
g4
(F5.0
g5
(g6
g7
Ntp1103
Rp1104
(dp1105
g11
g5
(g12
g13
(dp1106
g58
F1.0
stp1107
Rp1108
sg18
I-8637397557623547456
sbtp1109
Rp1110
sg122
g4
(F4.5
g5
(g6
g7
Ntp1111
Rp1112
(dp1113
g11
g5
(g12
g13
(dp1114
g127
F1.0
stp1115
Rp1116
sg18
I-4606935264605141194
sbtp1117
Rp1118
sg132
g4
(g79
(g80
(I0
tp1119
g82
tp1120
Rp1121
(I1
(tg89
I00
S'%\x06\x81\x95C\x8b\xe4?'
p1122
tp1123
bg5
(g6
g7
Ntp1124
Rp1125
(dp1126
g11
g5
(g12
g13
(dp1127
g142
F-1.0
sg98
F1.0
stp1128
Rp1129
sg18
I-2553330628009308297
sbtp1130
Rp1131
sg147
g4
(F3.0
g5
(g6
g7
Ntp1132
Rp1133
(dp1134
g11
g5
(g12
g13
(dp1135
g58
F1.0
stp1136
Rp1137
sg18
I-8637397557623547456
sbtp1138
Rp1139
sg156
g4
(g157
(g89
S'\xdb\x8a\xfde\xf7d\x04\xc0'
p1140
tp1141
Rp1142
g162
tp1143
Rp1144
sbag5
(g74
g7
Ntp1145
Rp1146
(dp1147
g78
g4
(g79
(g80
(I0
tp1148
g82
tp1149
Rp1150
(I1
(I1
tp1151
g89
I00
S's\xc9\xdb\x8b\x14<\xc8>'
p1152
tp1153
bg95
tp1154
Rp1155
sg103
g4
(F240.0
g5
(g6
g7
Ntp1156
Rp1157
(dp1158
g11
g5
(g12
g13
(dp1159
g58
F1.0
stp1160
Rp1161
sg18
I-8637397557623547456
sbtp1162
Rp1163
sg112
I18
sg113
g4
(F5.0
g5
(g6
g7
Ntp1164
Rp1165
(dp1166
g11
g5
(g12
g13
(dp1167
g58
F1.0
stp1168
Rp1169
sg18
I-8637397557623547456
sbtp1170
Rp1171
sg122
g4
(F4.5
g5
(g6
g7
Ntp1172
Rp1173
(dp1174
g11
g5
(g12
g13
(dp1175
g127
F1.0
stp1176
Rp1177
sg18
I-4606935264605141194
sbtp1178
Rp1179
sg132
g4
(g79
(g80
(I0
tp1180
g82
tp1181
Rp1182
(I1
(tg89
I00
S'%\x06\x81\x95C\x8b\xe4?'
p1183
tp1184
bg5
(g6
g7
Ntp1185
Rp1186
(dp1187
g11
g5
(g12
g13
(dp1188
g142
F-1.0
sg98
F1.0
stp1189
Rp1190
sg18
I-2553330628009308297
sbtp1191
Rp1192
sg147
g4
(F3.0
g5
(g6
g7
Ntp1193
Rp1194
(dp1195
g11
g5
(g12
g13
(dp1196
g58
F1.0
stp1197
Rp1198
sg18
I-8637397557623547456
sbtp1199
Rp1200
sg156
g4
(g157
(g89
S'\xfcR?o*\x92\x01\xc0'
p1201
tp1202
Rp1203
g162
tp1204
Rp1205
sbag5
(g74
g7
Ntp1206
Rp1207
(dp1208
g78
g4
(g79
(g80
(I0
tp1209
g82
tp1210
Rp1211
(I1
(I1
tp1212
g89
I00
S's\xc9\xdb\x8b\x14<\xc8>'
p1213
tp1214
bg95
tp1215
Rp1216
sg103
g4
(F240.0
g5
(g6
g7
Ntp1217
Rp1218
(dp1219
g11
g5
(g12
g13
(dp1220
g58
F1.0
stp1221
Rp1222
sg18
I-8637397557623547456
sbtp1223
Rp1224
sg112
I19
sg113
g4
(F5.0
g5
(g6
g7
Ntp1225
Rp1226
(dp1227
g11
g5
(g12
g13
(dp1228
g58
F1.0
stp1229
Rp1230
sg18
I-8637397557623547456
sbtp1231
Rp1232
sg122
g4
(F4.5
g5
(g6
g7
Ntp1233
Rp1234
(dp1235
g11
g5
(g12
g13
(dp1236
g127
F1.0
stp1237
Rp1238
sg18
I-4606935264605141194
sbtp1239
Rp1240
sg132
g4
(g79
(g80
(I0
tp1241
g82
tp1242
Rp1243
(I1
(tg89
I00
S'%\x06\x81\x95C\x8b\xe4?'
p1244
tp1245
bg5
(g6
g7
Ntp1246
Rp1247
(dp1248
g11
g5
(g12
g13
(dp1249
g142
F-1.0
sg98
F1.0
stp1250
Rp1251
sg18
I-2553330628009308297
sbtp1252
Rp1253
sg147
g4
(F3.0
g5
(g6
g7
Ntp1254
Rp1255
(dp1256
g11
g5
(g12
g13
(dp1257
g58
F1.0
stp1258
Rp1259
sg18
I-8637397557623547456
sbtp1260
Rp1261
sg156
g4
(g157
(g89
S'\xc9q\xa7t\xb0~\xfd\xbf'
p1262
tp1263
Rp1264
g162
tp1265
Rp1266
sbag5
(g74
g7
Ntp1267
Rp1268
(dp1269
g78
g4
(g79
(g80
(I0
tp1270
g82
tp1271
Rp1272
(I1
(I1
tp1273
g89
I00
S's\xc9\xdb\x8b\x14<\xc8>'
p1274
tp1275
bg95
tp1276
Rp1277
sg103
g4
(F240.0
g5
(g6
g7
Ntp1278
Rp1279
(dp1280
g11
g5
(g12
g13
(dp1281
g58
F1.0
stp1282
Rp1283
sg18
I-8637397557623547456
sbtp1284
Rp1285
sg112
I20
sg113
g4
(F5.0
g5
(g6
g7
Ntp1286
Rp1287
(dp1288
g11
g5
(g12
g13
(dp1289
g58
F1.0
stp1290
Rp1291
sg18
I-8637397557623547456
sbtp1292
Rp1293
sg122
g4
(F4.5
g5
(g6
g7
Ntp1294
Rp1295
(dp1296
g11
g5
(g12
g13
(dp1297
g127
F1.0
stp1298
Rp1299
sg18
I-4606935264605141194
sbtp1300
Rp1301
sg132
g4
(g79
(g80
(I0
tp1302
g82
tp1303
Rp1304
(I1
(tg89
I00
S'%\x06\x81\x95C\x8b\xe4?'
p1305
tp1306
bg5
(g6
g7
Ntp1307
Rp1308
(dp1309
g11
g5
(g12
g13
(dp1310
g142
F-1.0
sg98
F1.0
stp1311
Rp1312
sg18
I-2553330628009308297
sbtp1313
Rp1314
sg147
g4
(F3.0
g5
(g6
g7
Ntp1315
Rp1316
(dp1317
g11
g5
(g12
g13
(dp1318
g58
F1.0
stp1319
Rp1320
sg18
I-8637397557623547456
sbtp1321
Rp1322
sg156
g4
(g157
(g89
S'A\x0eJ\x98i{\xf8\xbf'
p1323
tp1324
Rp1325
g162
tp1326
Rp1327
sbag5
(g74
g7
Ntp1328
Rp1329
(dp1330
g78
g4
(g79
(g80
(I0
tp1331
g82
tp1332
Rp1333
(I1
(I1
tp1334
g89
I00
S's\xc9\xdb\x8b\x14<\xc8>'
p1335
tp1336
bg95
tp1337
Rp1338
sg103
g4
(F240.0
g5
(g6
g7
Ntp1339
Rp1340
(dp1341
g11
g5
(g12
g13
(dp1342
g58
F1.0
stp1343
Rp1344
sg18
I-8637397557623547456
sbtp1345
Rp1346
sg112
I21
sg113
g4
(F5.0
g5
(g6
g7
Ntp1347
Rp1348
(dp1349
g11
g5
(g12
g13
(dp1350
g58
F1.0
stp1351
Rp1352
sg18
I-8637397557623547456
sbtp1353
Rp1354
sg122
g4
(F4.5
g5
(g6
g7
Ntp1355
Rp1356
(dp1357
g11
g5
(g12
g13
(dp1358
g127
F1.0
stp1359
Rp1360
sg18
I-4606935264605141194
sbtp1361
Rp1362
sg132
g4
(g79
(g80
(I0
tp1363
g82
tp1364
Rp1365
(I1
(tg89
I00
S'%\x06\x81\x95C\x8b\xe4?'
p1366
tp1367
bg5
(g6
g7
Ntp1368
Rp1369
(dp1370
g11
g5
(g12
g13
(dp1371
g142
F-1.0
sg98
F1.0
stp1372
Rp1373
sg18
I-2553330628009308297
sbtp1374
Rp1375
sg147
g4
(F3.0
g5
(g6
g7
Ntp1376
Rp1377
(dp1378
g11
g5
(g12
g13
(dp1379
g58
F1.0
stp1380
Rp1381
sg18
I-8637397557623547456
sbtp1382
Rp1383
sg156
g4
(g157
(g89
S'\x96\xb7#\x9c\x16\xbc\xf4\xbf'
p1384
tp1385
Rp1386
g162
tp1387
Rp1388
sbag5
(g74
g7
Ntp1389
Rp1390
(dp1391
g78
g4
(g79
(g80
(I0
tp1392
g82
tp1393
Rp1394
(I1
(I1
tp1395
g89
I00
S's\xc9\xdb\x8b\x14<\xc8>'
p1396
tp1397
bg95
tp1398
Rp1399
sg103
g4
(F240.0
g5
(g6
g7
Ntp1400
Rp1401
(dp1402
g11
g5
(g12
g13
(dp1403
g58
F1.0
stp1404
Rp1405
sg18
I-8637397557623547456
sbtp1406
Rp1407
sg112
I22
sg113
g4
(F5.0
g5
(g6
g7
Ntp1408
Rp1409
(dp1410
g11
g5
(g12
g13
(dp1411
g58
F1.0
stp1412
Rp1413
sg18
I-8637397557623547456
sbtp1414
Rp1415
sg122
g4
(F4.5
g5
(g6
g7
Ntp1416
Rp1417
(dp1418
g11
g5
(g12
g13
(dp1419
g127
F1.0
stp1420
Rp1421
sg18
I-4606935264605141194
sbtp1422
Rp1423
sg132
g4
(g79
(g80
(I0
tp1424
g82
tp1425
Rp1426
(I1
(tg89
I00
S'%\x06\x81\x95C\x8b\xe4?'
p1427
tp1428
bg5
(g6
g7
Ntp1429
Rp1430
(dp1431
g11
g5
(g12
g13
(dp1432
g142
F-1.0
sg98
F1.0
stp1433
Rp1434
sg18
I-2553330628009308297
sbtp1435
Rp1436
sg147
g4
(F3.0
g5
(g6
g7
Ntp1437
Rp1438
(dp1439
g11
g5
(g12
g13
(dp1440
g58
F1.0
stp1441
Rp1442
sg18
I-8637397557623547456
sbtp1443
Rp1444
sg156
g4
(g157
(g89
S'\xbf\xf1\xb5g\x96\x84\xf3\xbf'
p1445
tp1446
Rp1447
g162
tp1448
Rp1449
sbag5
(g74
g7
Ntp1450
Rp1451
(dp1452
g78
g4
(g79
(g80
(I0
tp1453
g82
tp1454
Rp1455
(I1
(I1
tp1456
g89
I00
S's\xc9\xdb\x8b\x14<\xc8>'
p1457
tp1458
bg95
tp1459
Rp1460
sg103
g4
(F240.0
g5
(g6
g7
Ntp1461
Rp1462
(dp1463
g11
g5
(g12
g13
(dp1464
g58
F1.0
stp1465
Rp1466
sg18
I-8637397557623547456
sbtp1467
Rp1468
sg112
I23
sg113
g4
(F5.0
g5
(g6
g7
Ntp1469
Rp1470
(dp1471
g11
g5
(g12
g13
(dp1472
g58
F1.0
stp1473
Rp1474
sg18
I-8637397557623547456
sbtp1475
Rp1476
sg122
g4
(F4.5
g5
(g6
g7
Ntp1477
Rp1478
(dp1479
g11
g5
(g12
g13
(dp1480
g127
F1.0
stp1481
Rp1482
sg18
I-4606935264605141194
sbtp1483
Rp1484
sg132
g4
(g79
(g80
(I0
tp1485
g82
tp1486
Rp1487
(I1
(tg89
I00
S'%\x06\x81\x95C\x8b\xe4?'
p1488
tp1489
bg5
(g6
g7
Ntp1490
Rp1491
(dp1492
g11
g5
(g12
g13
(dp1493
g142
F-1.0
sg98
F1.0
stp1494
Rp1495
sg18
I-2553330628009308297
sbtp1496
Rp1497
sg147
g4
(F3.0
g5
(g6
g7
Ntp1498
Rp1499
(dp1500
g11
g5
(g12
g13
(dp1501
g58
F1.0
stp1502
Rp1503
sg18
I-8637397557623547456
sbtp1504
Rp1505
sg156
g4
(g157
(g89
S';\xa5\x83\xf5\x7f\x8e\xf3\xbf'
p1506
tp1507
Rp1508
g162
tp1509
Rp1510
sbag5
(g74
g7
Ntp1511
Rp1512
(dp1513
g78
g4
(g79
(g80
(I0
tp1514
g82
tp1515
Rp1516
(I1
(I1
tp1517
g89
I00
S's\xc9\xdb\x8b\x14<\xc8>'
p1518
tp1519
bg95
tp1520
Rp1521
sg103
g4
(F240.0
g5
(g6
g7
Ntp1522
Rp1523
(dp1524
g11
g5
(g12
g13
(dp1525
g58
F1.0
stp1526
Rp1527
sg18
I-8637397557623547456
sbtp1528
Rp1529
sg112
I24
sg113
g4
(F5.0
g5
(g6
g7
Ntp1530
Rp1531
(dp1532
g11
g5
(g12
g13
(dp1533
g58
F1.0
stp1534
Rp1535
sg18
I-8637397557623547456
sbtp1536
Rp1537
sg122
g4
(F4.5
g5
(g6
g7
Ntp1538
Rp1539
(dp1540
g11
g5
(g12
g13
(dp1541
g127
F1.0
stp1542
Rp1543
sg18
I-4606935264605141194
sbtp1544
Rp1545
sg132
g4
(g79
(g80
(I0
tp1546
g82
tp1547
Rp1548
(I1
(tg89
I00
S'%\x06\x81\x95C\x8b\xe4?'
p1549
tp1550
bg5
(g6
g7
Ntp1551
Rp1552
(dp1553
g11
g5
(g12
g13
(dp1554
g142
F-1.0
sg98
F1.0
stp1555
Rp1556
sg18
I-2553330628009308297
sbtp1557
Rp1558
sg147
g4
(F3.0
g5
(g6
g7
Ntp1559
Rp1560
(dp1561
g11
g5
(g12
g13
(dp1562
g58
F1.0
stp1563
Rp1564
sg18
I-8637397557623547456
sbtp1565
Rp1566
sg156
g4
(g157
(g89
S'\xd6\xff9\xcc\x97\x97\xf3\xbf'
p1567
tp1568
Rp1569
g162
tp1570
Rp1571
sbag5
(g74
g7
Ntp1572
Rp1573
(dp1574
g78
g4
(g79
(g80
(I0
tp1575
g82
tp1576
Rp1577
(I1
(I1
tp1578
g89
I00
S's\xc9\xdb\x8b\x14<\xc8>'
p1579
tp1580
bg95
tp1581
Rp1582
sg103
g4
(F240.0
g5
(g6
g7
Ntp1583
Rp1584
(dp1585
g11
g5
(g12
g13
(dp1586
g58
F1.0
stp1587
Rp1588
sg18
I-8637397557623547456
sbtp1589
Rp1590
sg112
I25
sg113
g4
(F5.0
g5
(g6
g7
Ntp1591
Rp1592
(dp1593
g11
g5
(g12
g13
(dp1594
g58
F1.0
stp1595
Rp1596
sg18
I-8637397557623547456
sbtp1597
Rp1598
sg122
g4
(F4.5
g5
(g6
g7
Ntp1599
Rp1600
(dp1601
g11
g5
(g12
g13
(dp1602
g127
F1.0
stp1603
Rp1604
sg18
I-4606935264605141194
sbtp1605
Rp1606
sg132
g4
(g79
(g80
(I0
tp1607
g82
tp1608
Rp1609
(I1
(tg89
I00
S'%\x06\x81\x95C\x8b\xe4?'
p1610
tp1611
bg5
(g6
g7
Ntp1612
Rp1613
(dp1614
g11
g5
(g12
g13
(dp1615
g142
F-1.0
sg98
F1.0
stp1616
Rp1617
sg18
I-2553330628009308297
sbtp1618
Rp1619
sg147
g4
(F3.0
g5
(g6
g7
Ntp1620
Rp1621
(dp1622
g11
g5
(g12
g13
(dp1623
g58
F1.0
stp1624
Rp1625
sg18
I-8637397557623547456
sbtp1626
Rp1627
sg156
g4
(g157
(g89
S'\x95\xd9 \x93\x8c\x9c\xf3\xbf'
p1628
tp1629
Rp1630
g162
tp1631
Rp1632
sbag5
(g74
g7
Ntp1633
Rp1634
(dp1635
g78
g4
(g79
(g80
(I0
tp1636
g82
tp1637
Rp1638
(I1
(I1
tp1639
g89
I00
S's\xc9\xdb\x8b\x14<\xc8>'
p1640
tp1641
bg95
tp1642
Rp1643
sg103
g4
(F240.0
g5
(g6
g7
Ntp1644
Rp1645
(dp1646
g11
g5
(g12
g13
(dp1647
g58
F1.0
stp1648
Rp1649
sg18
I-8637397557623547456
sbtp1650
Rp1651
sg112
I26
sg113
g4
(F5.0
g5
(g6
g7
Ntp1652
Rp1653
(dp1654
g11
g5
(g12
g13
(dp1655
g58
F1.0
stp1656
Rp1657
sg18
I-8637397557623547456
sbtp1658
Rp1659
sg122
g4
(F4.5
g5
(g6
g7
Ntp1660
Rp1661
(dp1662
g11
g5
(g12
g13
(dp1663
g127
F1.0
stp1664
Rp1665
sg18
I-4606935264605141194
sbtp1666
Rp1667
sg132
g4
(g79
(g80
(I0
tp1668
g82
tp1669
Rp1670
(I1
(tg89
I00
S'%\x06\x81\x95C\x8b\xe4?'
p1671
tp1672
bg5
(g6
g7
Ntp1673
Rp1674
(dp1675
g11
g5
(g12
g13
(dp1676
g142
F-1.0
sg98
F1.0
stp1677
Rp1678
sg18
I-2553330628009308297
sbtp1679
Rp1680
sg147
g4
(F3.0
g5
(g6
g7
Ntp1681
Rp1682
(dp1683
g11
g5
(g12
g13
(dp1684
g58
F1.0
stp1685
Rp1686
sg18
I-8637397557623547456
sbtp1687
Rp1688
sg156
g4
(g157
(g89
S'~5\x07\x08\xe6\xe8\xeb\xbf'
p1689
tp1690
Rp1691
g162
tp1692
Rp1693
sbag5
(g74
g7
Ntp1694
Rp1695
(dp1696
g78
g4
(g79
(g80
(I0
tp1697
g82
tp1698
Rp1699
(I1
(I1
tp1700
g89
I00
S's\xc9\xdb\x8b\x14<\xc8>'
p1701
tp1702
bg95
tp1703
Rp1704
sg103
g4
(F240.0
g5
(g6
g7
Ntp1705
Rp1706
(dp1707
g11
g5
(g12
g13
(dp1708
g58
F1.0
stp1709
Rp1710
sg18
I-8637397557623547456
sbtp1711
Rp1712
sg112
I27
sg113
g4
(F5.0
g5
(g6
g7
Ntp1713
Rp1714
(dp1715
g11
g5
(g12
g13
(dp1716
g58
F1.0
stp1717
Rp1718
sg18
I-8637397557623547456
sbtp1719
Rp1720
sg122
g4
(F4.5
g5
(g6
g7
Ntp1721
Rp1722
(dp1723
g11
g5
(g12
g13
(dp1724
g127
F1.0
stp1725
Rp1726
sg18
I-4606935264605141194
sbtp1727
Rp1728
sg132
g4
(g79
(g80
(I0
tp1729
g82
tp1730
Rp1731
(I1
(tg89
I00
S'%\x06\x81\x95C\x8b\xe4?'
p1732
tp1733
bg5
(g6
g7
Ntp1734
Rp1735
(dp1736
g11
g5
(g12
g13
(dp1737
g142
F-1.0
sg98
F1.0
stp1738
Rp1739
sg18
I-2553330628009308297
sbtp1740
Rp1741
sg147
g4
(F3.0
g5
(g6
g7
Ntp1742
Rp1743
(dp1744
g11
g5
(g12
g13
(dp1745
g58
F1.0
stp1746
Rp1747
sg18
I-8637397557623547456
sbtp1748
Rp1749
sg156
g4
(g157
(g89
S'\x10\x06\x9e{\x0f\x97\xe0\xbf'
p1750
tp1751
Rp1752
g162
tp1753
Rp1754
sbag5
(g74
g7
Ntp1755
Rp1756
(dp1757
g78
g4
(g79
(g80
(I0
tp1758
g82
tp1759
Rp1760
(I1
(I1
tp1761
g89
I00
S's\xc9\xdb\x8b\x14<\xc8>'
p1762
tp1763
bg95
tp1764
Rp1765
sg103
g4
(F240.0
g5
(g6
g7
Ntp1766
Rp1767
(dp1768
g11
g5
(g12
g13
(dp1769
g58
F1.0
stp1770
Rp1771
sg18
I-8637397557623547456
sbtp1772
Rp1773
sg112
I28
sg113
g4
(F5.0
g5
(g6
g7
Ntp1774
Rp1775
(dp1776
g11
g5
(g12
g13
(dp1777
g58
F1.0
stp1778
Rp1779
sg18
I-8637397557623547456
sbtp1780
Rp1781
sg122
g4
(F4.5
g5
(g6
g7
Ntp1782
Rp1783
(dp1784
g11
g5
(g12
g13
(dp1785
g127
F1.0
stp1786
Rp1787
sg18
I-4606935264605141194
sbtp1788
Rp1789
sg132
g4
(g79
(g80
(I0
tp1790
g82
tp1791
Rp1792
(I1
(tg89
I00
S'%\x06\x81\x95C\x8b\xe4?'
p1793
tp1794
bg5
(g6
g7
Ntp1795
Rp1796
(dp1797
g11
g5
(g12
g13
(dp1798
g142
F-1.0
sg98
F1.0
stp1799
Rp1800
sg18
I-2553330628009308297
sbtp1801
Rp1802
sg147
g4
(F3.0
g5
(g6
g7
Ntp1803
Rp1804
(dp1805
g11
g5
(g12
g13
(dp1806
g58
F1.0
stp1807
Rp1808
sg18
I-8637397557623547456
sbtp1809
Rp1810
sg156
g4
(g157
(g89
S'\rl\x95`q8\xe8\xbf'
p1811
tp1812
Rp1813
g162
tp1814
Rp1815
sbag5
(g74
g7
Ntp1816
Rp1817
(dp1818
g78
g4
(g79
(g80
(I0
tp1819
g82
tp1820
Rp1821
(I1
(I1
tp1822
g89
I00
S's\xc9\xdb\x8b\x14<\xc8>'
p1823
tp1824
bg95
tp1825
Rp1826
sg103
g4
(F240.0
g5
(g6
g7
Ntp1827
Rp1828
(dp1829
g11
g5
(g12
g13
(dp1830
g58
F1.0
stp1831
Rp1832
sg18
I-8637397557623547456
sbtp1833
Rp1834
sg112
I29
sg113
g4
(F5.0
g5
(g6
g7
Ntp1835
Rp1836
(dp1837
g11
g5
(g12
g13
(dp1838
g58
F1.0
stp1839
Rp1840
sg18
I-8637397557623547456
sbtp1841
Rp1842
sg122
g4
(F4.5
g5
(g6
g7
Ntp1843
Rp1844
(dp1845
g11
g5
(g12
g13
(dp1846
g127
F1.0
stp1847
Rp1848
sg18
I-4606935264605141194
sbtp1849
Rp1850
sg132
g4
(g79
(g80
(I0
tp1851
g82
tp1852
Rp1853
(I1
(tg89
I00
S'%\x06\x81\x95C\x8b\xe4?'
p1854
tp1855
bg5
(g6
g7
Ntp1856
Rp1857
(dp1858
g11
g5
(g12
g13
(dp1859
g142
F-1.0
sg98
F1.0
stp1860
Rp1861
sg18
I-2553330628009308297
sbtp1862
Rp1863
sg147
g4
(F3.0
g5
(g6
g7
Ntp1864
Rp1865
(dp1866
g11
g5
(g12
g13
(dp1867
g58
F1.0
stp1868
Rp1869
sg18
I-8637397557623547456
sbtp1870
Rp1871
sg156
g4
(g157
(g89
S'\x0b\xd2\x8cE\xd3\xd9\xef\xbf'
p1872
tp1873
Rp1874
g162
tp1875
Rp1876
sbag5
(g74
g7
Ntp1877
Rp1878
(dp1879
g78
g4
(g79
(g80
(I0
tp1880
g82
tp1881
Rp1882
(I1
(I1
tp1883
g89
I00
S's\xc9\xdb\x8b\x14<\xc8>'
p1884
tp1885
bg95
tp1886
Rp1887
sg103
g4
(F240.0
g5
(g6
g7
Ntp1888
Rp1889
(dp1890
g11
g5
(g12
g13
(dp1891
g58
F1.0
stp1892
Rp1893
sg18
I-8637397557623547456
sbtp1894
Rp1895
sg112
I30
sg113
g4
(F5.0
g5
(g6
g7
Ntp1896
Rp1897
(dp1898
g11
g5
(g12
g13
(dp1899
g58
F1.0
stp1900
Rp1901
sg18
I-8637397557623547456
sbtp1902
Rp1903
sg122
g4
(F4.5
g5
(g6
g7
Ntp1904
Rp1905
(dp1906
g11
g5
(g12
g13
(dp1907
g127
F1.0
stp1908
Rp1909
sg18
I-4606935264605141194
sbtp1910
Rp1911
sg132
g4
(g79
(g80
(I0
tp1912
g82
tp1913
Rp1914
(I1
(tg89
I00
S'%\x06\x81\x95C\x8b\xe4?'
p1915
tp1916
bg5
(g6
g7
Ntp1917
Rp1918
(dp1919
g11
g5
(g12
g13
(dp1920
g142
F-1.0
sg98
F1.0
stp1921
Rp1922
sg18
I-2553330628009308297
sbtp1923
Rp1924
sg147
g4
(F3.0
g5
(g6
g7
Ntp1925
Rp1926
(dp1927
g11
g5
(g12
g13
(dp1928
g58
F1.0
stp1929
Rp1930
sg18
I-8637397557623547456
sbtp1931
Rp1932
sg156
g4
(g157
(g89
S'j\xf6@+0d\xed\xbf'
p1933
tp1934
Rp1935
g162
tp1936
Rp1937
sbag5
(g74
g7
Ntp1938
Rp1939
(dp1940
g78
g4
(g79
(g80
(I0
tp1941
g82
tp1942
Rp1943
(I1
(I1
tp1944
g89
I00
S's\xc9\xdb\x8b\x14<\xc8>'
p1945
tp1946
bg95
tp1947
Rp1948
sg103
g4
(F240.0
g5
(g6
g7
Ntp1949
Rp1950
(dp1951
g11
g5
(g12
g13
(dp1952
g58
F1.0
stp1953
Rp1954
sg18
I-8637397557623547456
sbtp1955
Rp1956
sg112
I31
sg113
g4
(F5.0
g5
(g6
g7
Ntp1957
Rp1958
(dp1959
g11
g5
(g12
g13
(dp1960
g58
F1.0
stp1961
Rp1962
sg18
I-8637397557623547456
sbtp1963
Rp1964
sg122
g4
(F4.5
g5
(g6
g7
Ntp1965
Rp1966
(dp1967
g11
g5
(g12
g13
(dp1968
g127
F1.0
stp1969
Rp1970
sg18
I-4606935264605141194
sbtp1971
Rp1972
sg132
g4
(g79
(g80
(I0
tp1973
g82
tp1974
Rp1975
(I1
(tg89
I00
S'%\x06\x81\x95C\x8b\xe4?'
p1976
tp1977
bg5
(g6
g7
Ntp1978
Rp1979
(dp1980
g11
g5
(g12
g13
(dp1981
g142
F-1.0
sg98
F1.0
stp1982
Rp1983
sg18
I-2553330628009308297
sbtp1984
Rp1985
sg147
g4
(F3.0
g5
(g6
g7
Ntp1986
Rp1987
(dp1988
g11
g5
(g12
g13
(dp1989
g58
F1.0
stp1990
Rp1991
sg18
I-8637397557623547456
sbtp1992
Rp1993
sg156
g4
(g157
(g89
S'0\xd8\r\xdb\x16e\xe8\xbf'
p1994
tp1995
Rp1996
g162
tp1997
Rp1998
sbag5
(g74
g7
Ntp1999
Rp2000
(dp2001
g78
g4
(g79
(g80
(I0
tp2002
g82
tp2003
Rp2004
(I1
(I1
tp2005
g89
I00
S's\xc9\xdb\x8b\x14<\xc8>'
p2006
tp2007
bg95
tp2008
Rp2009
sg103
g4
(F240.0
g5
(g6
g7
Ntp2010
Rp2011
(dp2012
g11
g5
(g12
g13
(dp2013
g58
F1.0
stp2014
Rp2015
sg18
I-8637397557623547456
sbtp2016
Rp2017
sg112
I32
sg113
g4
(F5.0
g5
(g6
g7
Ntp2018
Rp2019
(dp2020
g11
g5
(g12
g13
(dp2021
g58
F1.0
stp2022
Rp2023
sg18
I-8637397557623547456
sbtp2024
Rp2025
sg122
g4
(F4.5
g5
(g6
g7
Ntp2026
Rp2027
(dp2028
g11
g5
(g12
g13
(dp2029
g127
F1.0
stp2030
Rp2031
sg18
I-4606935264605141194
sbtp2032
Rp2033
sg132
g4
(g79
(g80
(I0
tp2034
g82
tp2035
Rp2036
(I1
(tg89
I00
S'%\x06\x81\x95C\x8b\xe4?'
p2037
tp2038
bg5
(g6
g7
Ntp2039
Rp2040
(dp2041
g11
g5
(g12
g13
(dp2042
g142
F-1.0
sg98
F1.0
stp2043
Rp2044
sg18
I-2553330628009308297
sbtp2045
Rp2046
sg147
g4
(F3.0
g5
(g6
g7
Ntp2047
Rp2048
(dp2049
g11
g5
(g12
g13
(dp2050
g58
F1.0
stp2051
Rp2052
sg18
I-8637397557623547456
sbtp2053
Rp2054
sg156
g4
(g157
(g89
S'~\xa9\x9f7\x15\xa9\xe4\xbf'
p2055
tp2056
Rp2057
g162
tp2058
Rp2059
sbag5
(g74
g7
Ntp2060
Rp2061
(dp2062
g78
g4
(g79
(g80
(I0
tp2063
g82
tp2064
Rp2065
(I1
(I1
tp2066
g89
I00
S's\xc9\xdb\x8b\x14<\xc8>'
p2067
tp2068
bg95
tp2069
Rp2070
sg103
g4
(F240.0
g5
(g6
g7
Ntp2071
Rp2072
(dp2073
g11
g5
(g12
g13
(dp2074
g58
F1.0
stp2075
Rp2076
sg18
I-8637397557623547456
sbtp2077
Rp2078
sg112
I33
sg113
g4
(F5.0
g5
(g6
g7
Ntp2079
Rp2080
(dp2081
g11
g5
(g12
g13
(dp2082
g58
F1.0
stp2083
Rp2084
sg18
I-8637397557623547456
sbtp2085
Rp2086
sg122
g4
(F4.5
g5
(g6
g7
Ntp2087
Rp2088
(dp2089
g11
g5
(g12
g13
(dp2090
g127
F1.0
stp2091
Rp2092
sg18
I-4606935264605141194
sbtp2093
Rp2094
sg132
g4
(g79
(g80
(I0
tp2095
g82
tp2096
Rp2097
(I1
(tg89
I00
S'%\x06\x81\x95C\x8b\xe4?'
p2098
tp2099
bg5
(g6
g7
Ntp2100
Rp2101
(dp2102
g11
g5
(g12
g13
(dp2103
g142
F-1.0
sg98
F1.0
stp2104
Rp2105
sg18
I-2553330628009308297
sbtp2106
Rp2107
sg147
g4
(F3.0
g5
(g6
g7
Ntp2108
Rp2109
(dp2110
g11
g5
(g12
g13
(dp2111
g58
F1.0
stp2112
Rp2113
sg18
I-8637397557623547456
sbtp2114
Rp2115
sg156
g4
(g157
(g89
S'q\xe1@H\x160\xe2\xbf'
p2116
tp2117
Rp2118
g162
tp2119
Rp2120
sbag5
(g74
g7
Ntp2121
Rp2122
(dp2123
g78
g4
(g79
(g80
(I0
tp2124
g82
tp2125
Rp2126
(I1
(I1
tp2127
g89
I00
S's\xc9\xdb\x8b\x14<\xc8>'
p2128
tp2129
bg95
tp2130
Rp2131
sg103
g4
(F240.0
g5
(g6
g7
Ntp2132
Rp2133
(dp2134
g11
g5
(g12
g13
(dp2135
g58
F1.0
stp2136
Rp2137
sg18
I-8637397557623547456
sbtp2138
Rp2139
sg112
I34
sg113
g4
(F5.0
g5
(g6
g7
Ntp2140
Rp2141
(dp2142
g11
g5
(g12
g13
(dp2143
g58
F1.0
stp2144
Rp2145
sg18
I-8637397557623547456
sbtp2146
Rp2147
sg122
g4
(F4.5
g5
(g6
g7
Ntp2148
Rp2149
(dp2150
g11
g5
(g12
g13
(dp2151
g127
F1.0
stp2152
Rp2153
sg18
I-4606935264605141194
sbtp2154
Rp2155
sg132
g4
(g79
(g80
(I0
tp2156
g82
tp2157
Rp2158
(I1
(tg89
I00
S'%\x06\x81\x95C\x8b\xe4?'
p2159
tp2160
bg5
(g6
g7
Ntp2161
Rp2162
(dp2163
g11
g5
(g12
g13
(dp2164
g142
F-1.0
sg98
F1.0
stp2165
Rp2166
sg18
I-2553330628009308297
sbtp2167
Rp2168
sg147
g4
(F3.0
g5
(g6
g7
Ntp2169
Rp2170
(dp2171
g11
g5
(g12
g13
(dp2172
g58
F1.0
stp2173
Rp2174
sg18
I-8637397557623547456
sbtp2175
Rp2176
sg156
g4
(g157
(g89
S'\t\xe1\xd1\xc6\x11k\xdf\xbf'
p2177
tp2178
Rp2179
g162
tp2180
Rp2181
sbag5
(g74
g7
Ntp2182
Rp2183
(dp2184
g78
g4
(g79
(g80
(I0
tp2185
g82
tp2186
Rp2187
(I1
(I1
tp2188
g89
I00
S's\xc9\xdb\x8b\x14<\xc8>'
p2189
tp2190
bg95
tp2191
Rp2192
sg103
g4
(F240.0
g5
(g6
g7
Ntp2193
Rp2194
(dp2195
g11
g5
(g12
g13
(dp2196
g58
F1.0
stp2197
Rp2198
sg18
I-8637397557623547456
sbtp2199
Rp2200
sg112
I35
sg113
g4
(F5.0
g5
(g6
g7
Ntp2201
Rp2202
(dp2203
g11
g5
(g12
g13
(dp2204
g58
F1.0
stp2205
Rp2206
sg18
I-8637397557623547456
sbtp2207
Rp2208
sg122
g4
(F4.5
g5
(g6
g7
Ntp2209
Rp2210
(dp2211
g11
g5
(g12
g13
(dp2212
g127
F1.0
stp2213
Rp2214
sg18
I-4606935264605141194
sbtp2215
Rp2216
sg132
g4
(g79
(g80
(I0
tp2217
g82
tp2218
Rp2219
(I1
(tg89
I00
S'%\x06\x81\x95C\x8b\xe4?'
p2220
tp2221
bg5
(g6
g7
Ntp2222
Rp2223
(dp2224
g11
g5
(g12
g13
(dp2225
g142
F-1.0
sg98
F1.0
stp2226
Rp2227
sg18
I-2553330628009308297
sbtp2228
Rp2229
sg147
g4
(F3.0
g5
(g6
g7
Ntp2230
Rp2231
(dp2232
g11
g5
(g12
g13
(dp2233
g58
F1.0
stp2234
Rp2235
sg18
I-8637397557623547456
sbtp2236
Rp2237
sg156
g4
(g157
(g89
S'\x8a\xab\xca\xbe+\x82\xdf\xbf'
p2238
tp2239
Rp2240
g162
tp2241
Rp2242
sbag5
(g74
g7
Ntp2243
Rp2244
(dp2245
g78
g4
(g79
(g80
(I0
tp2246
g82
tp2247
Rp2248
(I1
(I1
tp2249
g89
I00
S's\xc9\xdb\x8b\x14<\xc8>'
p2250
tp2251
bg95
tp2252
Rp2253
sg103
g4
(F240.0
g5
(g6
g7
Ntp2254
Rp2255
(dp2256
g11
g5
(g12
g13
(dp2257
g58
F1.0
stp2258
Rp2259
sg18
I-8637397557623547456
sbtp2260
Rp2261
sg112
I36
sg113
g4
(F5.0
g5
(g6
g7
Ntp2262
Rp2263
(dp2264
g11
g5
(g12
g13
(dp2265
g58
F1.0
stp2266
Rp2267
sg18
I-8637397557623547456
sbtp2268
Rp2269
sg122
g4
(F4.5
g5
(g6
g7
Ntp2270
Rp2271
(dp2272
g11
g5
(g12
g13
(dp2273
g127
F1.0
stp2274
Rp2275
sg18
I-4606935264605141194
sbtp2276
Rp2277
sg132
g4
(g79
(g80
(I0
tp2278
g82
tp2279
Rp2280
(I1
(tg89
I00
S'%\x06\x81\x95C\x8b\xe4?'
p2281
tp2282
bg5
(g6
g7
Ntp2283
Rp2284
(dp2285
g11
g5
(g12
g13
(dp2286
g142
F-1.0
sg98
F1.0
stp2287
Rp2288
sg18
I-2553330628009308297
sbtp2289
Rp2290
sg147
g4
(F3.0
g5
(g6
g7
Ntp2291
Rp2292
(dp2293
g11
g5
(g12
g13
(dp2294
g58
F1.0
stp2295
Rp2296
sg18
I-8637397557623547456
sbtp2297
Rp2298
sg156
g4
(g157
(g89
S'\x8f\xaa&\x88\xba\x0f\xe1\xbf'
p2299
tp2300
Rp2301
g162
tp2302
Rp2303
sbag5
(g74
g7
Ntp2304
Rp2305
(dp2306
g78
g4
(g79
(g80
(I0
tp2307
g82
tp2308
Rp2309
(I1
(I1
tp2310
g89
I00
S's\xc9\xdb\x8b\x14<\xc8>'
p2311
tp2312
bg95
tp2313
Rp2314
sg103
g4
(F240.0
g5
(g6
g7
Ntp2315
Rp2316
(dp2317
g11
g5
(g12
g13
(dp2318
g58
F1.0
stp2319
Rp2320
sg18
I-8637397557623547456
sbtp2321
Rp2322
sg112
I37
sg113
g4
(F5.0
g5
(g6
g7
Ntp2323
Rp2324
(dp2325
g11
g5
(g12
g13
(dp2326
g58
F1.0
stp2327
Rp2328
sg18
I-8637397557623547456
sbtp2329
Rp2330
sg122
g4
(F4.5
g5
(g6
g7
Ntp2331
Rp2332
(dp2333
g11
g5
(g12
g13
(dp2334
g127
F1.0
stp2335
Rp2336
sg18
I-4606935264605141194
sbtp2337
Rp2338
sg132
g4
(g79
(g80
(I0
tp2339
g82
tp2340
Rp2341
(I1
(tg89
I00
S'%\x06\x81\x95C\x8b\xe4?'
p2342
tp2343
bg5
(g6
g7
Ntp2344
Rp2345
(dp2346
g11
g5
(g12
g13
(dp2347
g142
F-1.0
sg98
F1.0
stp2348
Rp2349
sg18
I-2553330628009308297
sbtp2350
Rp2351
sg147
g4
(F3.0
g5
(g6
g7
Ntp2352
Rp2353
(dp2354
g11
g5
(g12
g13
(dp2355
g58
F1.0
stp2356
Rp2357
sg18
I-8637397557623547456
sbtp2358
Rp2359
sg156
g4
(g157
(g89
S"TR'\xa0\x89\xb0\xdf\xbf"
p2360
tp2361
Rp2362
g162
tp2363
Rp2364
sbag5
(g74
g7
Ntp2365
Rp2366
(dp2367
g78
g4
(g79
(g80
(I0
tp2368
g82
tp2369
Rp2370
(I1
(I1
tp2371
g89
I00
S's\xc9\xdb\x8b\x14<\xc8>'
p2372
tp2373
bg95
tp2374
Rp2375
sg103
g4
(F240.0
g5
(g6
g7
Ntp2376
Rp2377
(dp2378
g11
g5
(g12
g13
(dp2379
g58
F1.0
stp2380
Rp2381
sg18
I-8637397557623547456
sbtp2382
Rp2383
sg112
I38
sg113
g4
(F5.0
g5
(g6
g7
Ntp2384
Rp2385
(dp2386
g11
g5
(g12
g13
(dp2387
g58
F1.0
stp2388
Rp2389
sg18
I-8637397557623547456
sbtp2390
Rp2391
sg122
g4
(F4.5
g5
(g6
g7
Ntp2392
Rp2393
(dp2394
g11
g5
(g12
g13
(dp2395
g127
F1.0
stp2396
Rp2397
sg18
I-4606935264605141194
sbtp2398
Rp2399
sg132
g4
(g79
(g80
(I0
tp2400
g82
tp2401
Rp2402
(I1
(tg89
I00
S'%\x06\x81\x95C\x8b\xe4?'
p2403
tp2404
bg5
(g6
g7
Ntp2405
Rp2406
(dp2407
g11
g5
(g12
g13
(dp2408
g142
F-1.0
sg98
F1.0
stp2409
Rp2410
sg18
I-2553330628009308297
sbtp2411
Rp2412
sg147
g4
(F3.0
g5
(g6
g7
Ntp2413
Rp2414
(dp2415
g11
g5
(g12
g13
(dp2416
g58
F1.0
stp2417
Rp2418
sg18
I-8637397557623547456
sbtp2419
Rp2420
sg156
g4
(g157
(g89
S'\xb8\xaf\x03\xe7\x8c(\xe1\xbf'
p2421
tp2422
Rp2423
g162
tp2424
Rp2425
sbag5
(g74
g7
Ntp2426
Rp2427
(dp2428
g78
g4
(g79
(g80
(I0
tp2429
g82
tp2430
Rp2431
(I1
(I1
tp2432
g89
I00
S's\xc9\xdb\x8b\x14<\xc8>'
p2433
tp2434
bg95
tp2435
Rp2436
sg103
g4
(F240.0
g5
(g6
g7
Ntp2437
Rp2438
(dp2439
g11
g5
(g12
g13
(dp2440
g58
F1.0
stp2441
Rp2442
sg18
I-8637397557623547456
sbtp2443
Rp2444
sg112
I39
sg113
g4
(F5.0
g5
(g6
g7
Ntp2445
Rp2446
(dp2447
g11
g5
(g12
g13
(dp2448
g58
F1.0
stp2449
Rp2450
sg18
I-8637397557623547456
sbtp2451
Rp2452
sg122
g4
(F4.5
g5
(g6
g7
Ntp2453
Rp2454
(dp2455
g11
g5
(g12
g13
(dp2456
g127
F1.0
stp2457
Rp2458
sg18
I-4606935264605141194
sbtp2459
Rp2460
sg132
g4
(g79
(g80
(I0
tp2461
g82
tp2462
Rp2463
(I1
(tg89
I00
S'%\x06\x81\x95C\x8b\xe4?'
p2464
tp2465
bg5
(g6
g7
Ntp2466
Rp2467
(dp2468
g11
g5
(g12
g13
(dp2469
g142
F-1.0
sg98
F1.0
stp2470
Rp2471
sg18
I-2553330628009308297
sbtp2472
Rp2473
sg147
g4
(F3.0
g5
(g6
g7
Ntp2474
Rp2475
(dp2476
g11
g5
(g12
g13
(dp2477
g58
F1.0
stp2478
Rp2479
sg18
I-8637397557623547456
sbtp2480
Rp2481
sg156
g4
(g157
(g89
S':\x1e3P\x19\xff\xe4\xbf'
p2482
tp2483
Rp2484
g162
tp2485
Rp2486
sbag5
(g74
g7
Ntp2487
Rp2488
(dp2489
g78
g4
(g79
(g80
(I0
tp2490
g82
tp2491
Rp2492
(I1
(I1
tp2493
g89
I00
S's\xc9\xdb\x8b\x14<\xc8>'
p2494
tp2495
bg95
tp2496
Rp2497
sg103
g4
(F240.0
g5
(g6
g7
Ntp2498
Rp2499
(dp2500
g11
g5
(g12
g13
(dp2501
g58
F1.0
stp2502
Rp2503
sg18
I-8637397557623547456
sbtp2504
Rp2505
sg112
I40
sg113
g4
(F5.0
g5
(g6
g7
Ntp2506
Rp2507
(dp2508
g11
g5
(g12
g13
(dp2509
g58
F1.0
stp2510
Rp2511
sg18
I-8637397557623547456
sbtp2512
Rp2513
sg122
g4
(F4.5
g5
(g6
g7
Ntp2514
Rp2515
(dp2516
g11
g5
(g12
g13
(dp2517
g127
F1.0
stp2518
Rp2519
sg18
I-4606935264605141194
sbtp2520
Rp2521
sg132
g4
(g79
(g80
(I0
tp2522
g82
tp2523
Rp2524
(I1
(tg89
I00
S'%\x06\x81\x95C\x8b\xe4?'
p2525
tp2526
bg5
(g6
g7
Ntp2527
Rp2528
(dp2529
g11
g5
(g12
g13
(dp2530
g142
F-1.0
sg98
F1.0
stp2531
Rp2532
sg18
I-2553330628009308297
sbtp2533
Rp2534
sg147
g4
(F3.0
g5
(g6
g7
Ntp2535
Rp2536
(dp2537
g11
g5
(g12
g13
(dp2538
g58
F1.0
stp2539
Rp2540
sg18
I-8637397557623547456
sbtp2541
Rp2542
sg156
g4
(g157
(g89
S'\xbc\x00\xfb\xe8\xd4\x95\xe7\xbf'
p2543
tp2544
Rp2545
g162
tp2546
Rp2547
sbag5
(g74
g7
Ntp2548
Rp2549
(dp2550
g78
g4
(g79
(g80
(I0
tp2551
g82
tp2552
Rp2553
(I1
(I1
tp2554
g89
I00
S's\xc9\xdb\x8b\x14<\xc8>'
p2555
tp2556
bg95
tp2557
Rp2558
sg103
g4
(F240.0
g5
(g6
g7
Ntp2559
Rp2560
(dp2561
g11
g5
(g12
g13
(dp2562
g58
F1.0
stp2563
Rp2564
sg18
I-8637397557623547456
sbtp2565
Rp2566
sg112
I41
sg113
g4
(F5.0
g5
(g6
g7
Ntp2567
Rp2568
(dp2569
g11
g5
(g12
g13
(dp2570
g58
F1.0
stp2571
Rp2572
sg18
I-8637397557623547456
sbtp2573
Rp2574
sg122
g4
(F4.5
g5
(g6
g7
Ntp2575
Rp2576
(dp2577
g11
g5
(g12
g13
(dp2578
g127
F1.0
stp2579
Rp2580
sg18
I-4606935264605141194
sbtp2581
Rp2582
sg132
g4
(g79
(g80
(I0
tp2583
g82
tp2584
Rp2585
(I1
(tg89
I00
S'%\x06\x81\x95C\x8b\xe4?'
p2586
tp2587
bg5
(g6
g7
Ntp2588
Rp2589
(dp2590
g11
g5
(g12
g13
(dp2591
g142
F-1.0
sg98
F1.0
stp2592
Rp2593
sg18
I-2553330628009308297
sbtp2594
Rp2595
sg147
g4
(F3.0
g5
(g6
g7
Ntp2596
Rp2597
(dp2598
g11
g5
(g12
g13
(dp2599
g58
F1.0
stp2600
Rp2601
sg18
I-8637397557623547456
sbtp2602
Rp2603
sg156
g4
(g157
(g89
S'\x16jM\xf3\x8eS\xe1\xbf'
p2604
tp2605
Rp2606
g162
tp2607
Rp2608
sbag5
(g74
g7
Ntp2609
Rp2610
(dp2611
g78
g4
(g79
(g80
(I0
tp2612
g82
tp2613
Rp2614
(I1
(I1
tp2615
g89
I00
S's\xc9\xdb\x8b\x14<\xc8>'
p2616
tp2617
bg95
tp2618
Rp2619
sg103
g4
(F240.0
g5
(g6
g7
Ntp2620
Rp2621
(dp2622
g11
g5
(g12
g13
(dp2623
g58
F1.0
stp2624
Rp2625
sg18
I-8637397557623547456
sbtp2626
Rp2627
sg112
I42
sg113
g4
(F5.0
g5
(g6
g7
Ntp2628
Rp2629
(dp2630
g11
g5
(g12
g13
(dp2631
g58
F1.0
stp2632
Rp2633
sg18
I-8637397557623547456
sbtp2634
Rp2635
sg122
g4
(F4.5
g5
(g6
g7
Ntp2636
Rp2637
(dp2638
g11
g5
(g12
g13
(dp2639
g127
F1.0
stp2640
Rp2641
sg18
I-4606935264605141194
sbtp2642
Rp2643
sg132
g4
(g79
(g80
(I0
tp2644
g82
tp2645
Rp2646
(I1
(tg89
I00
S'%\x06\x81\x95C\x8b\xe4?'
p2647
tp2648
bg5
(g6
g7
Ntp2649
Rp2650
(dp2651
g11
g5
(g12
g13
(dp2652
g142
F-1.0
sg98
F1.0
stp2653
Rp2654
sg18
I-2553330628009308297
sbtp2655
Rp2656
sg147
g4
(F3.0
g5
(g6
g7
Ntp2657
Rp2658
(dp2659
g11
g5
(g12
g13
(dp2660
g58
F1.0
stp2661
Rp2662
sg18
I-8637397557623547456
sbtp2663
Rp2664
sg156
g4
(g157
(g89
S'\xb7\x974F\xeb\xa8\xd8\xbf'
p2665
tp2666
Rp2667
g162
tp2668
Rp2669
sbag5
(g74
g7
Ntp2670
Rp2671
(dp2672
g78
g4
(g79
(g80
(I0
tp2673
g82
tp2674
Rp2675
(I1
(I1
tp2676
g89
I00
S's\xc9\xdb\x8b\x14<\xc8>'
p2677
tp2678
bg95
tp2679
Rp2680
sg103
g4
(F240.0
g5
(g6
g7
Ntp2681
Rp2682
(dp2683
g11
g5
(g12
g13
(dp2684
g58
F1.0
stp2685
Rp2686
sg18
I-8637397557623547456
sbtp2687
Rp2688
sg112
I43
sg113
g4
(F5.0
g5
(g6
g7
Ntp2689
Rp2690
(dp2691
g11
g5
(g12
g13
(dp2692
g58
F1.0
stp2693
Rp2694
sg18
I-8637397557623547456
sbtp2695
Rp2696
sg122
g4
(F4.5
g5
(g6
g7
Ntp2697
Rp2698
(dp2699
g11
g5
(g12
g13
(dp2700
g127
F1.0
stp2701
Rp2702
sg18
I-4606935264605141194
sbtp2703
Rp2704
sg132
g4
(g79
(g80
(I0
tp2705
g82
tp2706
Rp2707
(I1
(tg89
I00
S'%\x06\x81\x95C\x8b\xe4?'
p2708
tp2709
bg5
(g6
g7
Ntp2710
Rp2711
(dp2712
g11
g5
(g12
g13
(dp2713
g142
F-1.0
sg98
F1.0
stp2714
Rp2715
sg18
I-2553330628009308297
sbtp2716
Rp2717
sg147
g4
(F3.0
g5
(g6
g7
Ntp2718
Rp2719
(dp2720
g11
g5
(g12
g13
(dp2721
g58
F1.0
stp2722
Rp2723
sg18
I-8637397557623547456
sbtp2724
Rp2725
sg156
g4
(g157
(g89
S'9b->\x05\xc0\xd8\xbf'
p2726
tp2727
Rp2728
g162
tp2729
Rp2730
sbag5
(g74
g7
Ntp2731
Rp2732
(dp2733
g78
g4
(g79
(g80
(I0
tp2734
g82
tp2735
Rp2736
(I1
(I1
tp2737
g89
I00
S's\xc9\xdb\x8b\x14<\xc8>'
p2738
tp2739
bg95
tp2740
Rp2741
sg103
g4
(F240.0
g5
(g6
g7
Ntp2742
Rp2743
(dp2744
g11
g5
(g12
g13
(dp2745
g58
F1.0
stp2746
Rp2747
sg18
I-8637397557623547456
sbtp2748
Rp2749
sg112
I44
sg113
g4
(F5.0
g5
(g6
g7
Ntp2750
Rp2751
(dp2752
g11
g5
(g12
g13
(dp2753
g58
F1.0
stp2754
Rp2755
sg18
I-8637397557623547456
sbtp2756
Rp2757
sg122
g4
(F4.5
g5
(g6
g7
Ntp2758
Rp2759
(dp2760
g11
g5
(g12
g13
(dp2761
g127
F1.0
stp2762
Rp2763
sg18
I-4606935264605141194
sbtp2764
Rp2765
sg132
g4
(g79
(g80
(I0
tp2766
g82
tp2767
Rp2768
(I1
(tg89
I00
S'%\x06\x81\x95C\x8b\xe4?'
p2769
tp2770
bg5
(g6
g7
Ntp2771
Rp2772
(dp2773
g11
g5
(g12
g13
(dp2774
g142
F-1.0
sg98
F1.0
stp2775
Rp2776
sg18
I-2553330628009308297
sbtp2777
Rp2778
sg147
g4
(F3.0
g5
(g6
g7
Ntp2779
Rp2780
(dp2781
g11
g5
(g12
g13
(dp2782
g58
F1.0
stp2783
Rp2784
sg18
I-8637397557623547456
sbtp2785
Rp2786
sg156
g4
(g157
(g89
S'\x92\x05L\xe0\xd6\xdd\xd8\xbf'
p2787
tp2788
Rp2789
g162
tp2790
Rp2791
sbag5
(g74
g7
Ntp2792
Rp2793
(dp2794
g78
g4
(g79
(g80
(I0
tp2795
g82
tp2796
Rp2797
(I1
(I1
tp2798
g89
I00
S's\xc9\xdb\x8b\x14<\xc8>'
p2799
tp2800
bg95
tp2801
Rp2802
sg103
g4
(F240.0
g5
(g6
g7
Ntp2803
Rp2804
(dp2805
g11
g5
(g12
g13
(dp2806
g58
F1.0
stp2807
Rp2808
sg18
I-8637397557623547456
sbtp2809
Rp2810
sg112
I45
sg113
g4
(F5.0
g5
(g6
g7
Ntp2811
Rp2812
(dp2813
g11
g5
(g12
g13
(dp2814
g58
F1.0
stp2815
Rp2816
sg18
I-8637397557623547456
sbtp2817
Rp2818
sg122
g4
(F4.5
g5
(g6
g7
Ntp2819
Rp2820
(dp2821
g11
g5
(g12
g13
(dp2822
g127
F1.0
stp2823
Rp2824
sg18
I-4606935264605141194
sbtp2825
Rp2826
sg132
g4
(g79
(g80
(I0
tp2827
g82
tp2828
Rp2829
(I1
(tg89
I00
S'%\x06\x81\x95C\x8b\xe4?'
p2830
tp2831
bg5
(g6
g7
Ntp2832
Rp2833
(dp2834
g11
g5
(g12
g13
(dp2835
g142
F-1.0
sg98
F1.0
stp2836
Rp2837
sg18
I-2553330628009308297
sbtp2838
Rp2839
sg147
g4
(F3.0
g5
(g6
g7
Ntp2840
Rp2841
(dp2842
g11
g5
(g12
g13
(dp2843
g58
F1.0
stp2844
Rp2845
sg18
I-8637397557623547456
sbtp2846
Rp2847
sg156
g4
(g157
(g89
S'cE\r\xa6a\xf8\xd8\xbf'
p2848
tp2849
Rp2850
g162
tp2851
Rp2852
sbag5
(g74
g7
Ntp2853
Rp2854
(dp2855
g78
g4
(g79
(g80
(I0
tp2856
g82
tp2857
Rp2858
(I1
(I1
tp2859
g89
I00
S's\xc9\xdb\x8b\x14<\xc8>'
p2860
tp2861
bg95
tp2862
Rp2863
sg103
g4
(F240.0
g5
(g6
g7
Ntp2864
Rp2865
(dp2866
g11
g5
(g12
g13
(dp2867
g58
F1.0
stp2868
Rp2869
sg18
I-8637397557623547456
sbtp2870
Rp2871
sg112
I46
sg113
g4
(F5.0
g5
(g6
g7
Ntp2872
Rp2873
(dp2874
g11
g5
(g12
g13
(dp2875
g58
F1.0
stp2876
Rp2877
sg18
I-8637397557623547456
sbtp2878
Rp2879
sg122
g4
(F4.5
g5
(g6
g7
Ntp2880
Rp2881
(dp2882
g11
g5
(g12
g13
(dp2883
g127
F1.0
stp2884
Rp2885
sg18
I-4606935264605141194
sbtp2886
Rp2887
sg132
g4
(g79
(g80
(I0
tp2888
g82
tp2889
Rp2890
(I1
(tg89
I00
S'%\x06\x81\x95C\x8b\xe4?'
p2891
tp2892
bg5
(g6
g7
Ntp2893
Rp2894
(dp2895
g11
g5
(g12
g13
(dp2896
g142
F-1.0
sg98
F1.0
stp2897
Rp2898
sg18
I-2553330628009308297
sbtp2899
Rp2900
sg147
g4
(F3.0
g5
(g6
g7
Ntp2901
Rp2902
(dp2903
g11
g5
(g12
g13
(dp2904
g58
F1.0
stp2905
Rp2906
sg18
I-8637397557623547456
sbtp2907
Rp2908
sg156
g4
(g157
(g89
S'mscz\xc2\x12\xd9\xbf'
p2909
tp2910
Rp2911
g162
tp2912
Rp2913
sbag5
(g74
g7
Ntp2914
Rp2915
(dp2916
g78
g4
(g79
(g80
(I0
tp2917
g82
tp2918
Rp2919
(I1
(I1
tp2920
g89
I00
S's\xc9\xdb\x8b\x14<\xc8>'
p2921
tp2922
bg95
tp2923
Rp2924
sg103
g4
(F240.0
g5
(g6
g7
Ntp2925
Rp2926
(dp2927
g11
g5
(g12
g13
(dp2928
g58
F1.0
stp2929
Rp2930
sg18
I-8637397557623547456
sbtp2931
Rp2932
sg112
I47
sg113
g4
(F5.0
g5
(g6
g7
Ntp2933
Rp2934
(dp2935
g11
g5
(g12
g13
(dp2936
g58
F1.0
stp2937
Rp2938
sg18
I-8637397557623547456
sbtp2939
Rp2940
sg122
g4
(F4.5
g5
(g6
g7
Ntp2941
Rp2942
(dp2943
g11
g5
(g12
g13
(dp2944
g127
F1.0
stp2945
Rp2946
sg18
I-4606935264605141194
sbtp2947
Rp2948
sg132
g4
(g79
(g80
(I0
tp2949
g82
tp2950
Rp2951
(I1
(tg89
I00
S'%\x06\x81\x95C\x8b\xe4?'
p2952
tp2953
bg5
(g6
g7
Ntp2954
Rp2955
(dp2956
g11
g5
(g12
g13
(dp2957
g142
F-1.0
sg98
F1.0
stp2958
Rp2959
sg18
I-2553330628009308297
sbtp2960
Rp2961
sg147
g4
(F3.0
g5
(g6
g7
Ntp2962
Rp2963
(dp2964
g11
g5
(g12
g13
(dp2965
g58
F1.0
stp2966
Rp2967
sg18
I-8637397557623547456
sbtp2968
Rp2969
sg156
g4
(g157
(g89
S'>\xb3$@M-\xd9\xbf'
p2970
tp2971
Rp2972
g162
tp2973
Rp2974
sbag5
(g74
g7
Ntp2975
Rp2976
(dp2977
g78
g4
(g79
(g80
(I0
tp2978
g82
tp2979
Rp2980
(I1
(I1
tp2981
g89
I00
S's\xc9\xdb\x8b\x14<\xc8>'
p2982
tp2983
bg95
tp2984
Rp2985
sg103
g4
(F240.0
g5
(g6
g7
Ntp2986
Rp2987
(dp2988
g11
g5
(g12
g13
(dp2989
g58
F1.0
stp2990
Rp2991
sg18
I-8637397557623547456
sbtp2992
Rp2993
sg112
I48
sg113
g4
(F5.0
g5
(g6
g7
Ntp2994
Rp2995
(dp2996
g11
g5
(g12
g13
(dp2997
g58
F1.0
stp2998
Rp2999
sg18
I-8637397557623547456
sbtp3000
Rp3001
sg122
g4
(F4.5
g5
(g6
g7
Ntp3002
Rp3003
(dp3004
g11
g5
(g12
g13
(dp3005
g127
F1.0
stp3006
Rp3007
sg18
I-4606935264605141194
sbtp3008
Rp3009
sg132
g4
(g79
(g80
(I0
tp3010
g82
tp3011
Rp3012
(I1
(tg89
I00
S'%\x06\x81\x95C\x8b\xe4?'
p3013
tp3014
bg5
(g6
g7
Ntp3015
Rp3016
(dp3017
g11
g5
(g12
g13
(dp3018
g142
F-1.0
sg98
F1.0
stp3019
Rp3020
sg18
I-2553330628009308297
sbtp3021
Rp3022
sg147
g4
(F3.0
g5
(g6
g7
Ntp3023
Rp3024
(dp3025
g11
g5
(g12
g13
(dp3026
g58
F1.0
stp3027
Rp3028
sg18
I-8637397557623547456
sbtp3029
Rp3030
sg156
g4
(g157
(g89
S'H\xe1z\x14\xaeG\xd9\xbf'
p3031
tp3032
Rp3033
g162
tp3034
Rp3035
sbag5
(g74
g7
Ntp3036
Rp3037
(dp3038
g78
g4
(g79
(g80
(I0
tp3039
g82
tp3040
Rp3041
(I1
(I1
tp3042
g89
I00
S's\xc9\xdb\x8b\x14<\xc8>'
p3043
tp3044
bg95
tp3045
Rp3046
sg103
g4
(F240.0
g5
(g6
g7
Ntp3047
Rp3048
(dp3049
g11
g5
(g12
g13
(dp3050
g58
F1.0
stp3051
Rp3052
sg18
I-8637397557623547456
sbtp3053
Rp3054
sg112
I49
sg113
g4
(F5.0
g5
(g6
g7
Ntp3055
Rp3056
(dp3057
g11
g5
(g12
g13
(dp3058
g58
F1.0
stp3059
Rp3060
sg18
I-8637397557623547456
sbtp3061
Rp3062
sg122
g4
(F4.5
g5
(g6
g7
Ntp3063
Rp3064
(dp3065
g11
g5
(g12
g13
(dp3066
g127
F1.0
stp3067
Rp3068
sg18
I-4606935264605141194
sbtp3069
Rp3070
sg132
g4
(g79
(g80
(I0
tp3071
g82
tp3072
Rp3073
(I1
(tg89
I00
S'%\x06\x81\x95C\x8b\xe4?'
p3074
tp3075
bg5
(g6
g7
Ntp3076
Rp3077
(dp3078
g11
g5
(g12
g13
(dp3079
g142
F-1.0
sg98
F1.0
stp3080
Rp3081
sg18
I-2553330628009308297
sbtp3082
Rp3083
sg147
g4
(F3.0
g5
(g6
g7
Ntp3084
Rp3085
(dp3086
g11
g5
(g12
g13
(dp3087
g58
F1.0
stp3088
Rp3089
sg18
I-8637397557623547456
sbtp3090
Rp3091
sg156
g4
(g157
(g89
S';\xdfO\x8d\x97n\xde\xbf'
p3092
tp3093
Rp3094
g162
tp3095
Rp3096
sbag5
(g74
g7
Ntp3097
Rp3098
(dp3099
g78
g4
(g79
(g80
(I0
tp3100
g82
tp3101
Rp3102
(I1
(I1
tp3103
g89
I00
S's\xc9\xdb\x8b\x14<\xc8>'
p3104
tp3105
bg95
tp3106
Rp3107
sg103
g4
(F240.0
g5
(g6
g7
Ntp3108
Rp3109
(dp3110
g11
g5
(g12
g13
(dp3111
g58
F1.0
stp3112
Rp3113
sg18
I-8637397557623547456
sbtp3114
Rp3115
sg112
I50
sg113
g4
(F5.0
g5
(g6
g7
Ntp3116
Rp3117
(dp3118
g11
g5
(g12
g13
(dp3119
g58
F1.0
stp3120
Rp3121
sg18
I-8637397557623547456
sbtp3122
Rp3123
sg122
g4
(F4.5
g5
(g6
g7
Ntp3124
Rp3125
(dp3126
g11
g5
(g12
g13
(dp3127
g127
F1.0
stp3128
Rp3129
sg18
I-4606935264605141194
sbtp3130
Rp3131
sg132
g4
(g79
(g80
(I0
tp3132
g82
tp3133
Rp3134
(I1
(tg89
I00
S'%\x06\x81\x95C\x8b\xe4?'
p3135
tp3136
bg5
(g6
g7
Ntp3137
Rp3138
(dp3139
g11
g5
(g12
g13
(dp3140
g142
F-1.0
sg98
F1.0
stp3141
Rp3142
sg18
I-2553330628009308297
sbtp3143
Rp3144
sg147
g4
(F3.0
g5
(g6
g7
Ntp3145
Rp3146
(dp3147
g11
g5
(g12
g13
(dp3148
g58
F1.0
stp3149
Rp3150
sg18
I-8637397557623547456
sbtp3151
Rp3152
sg156
g4
(g157
(g89
S'\xf5\xd6\xc0V\t\x16\xe3\xbf'
p3153
tp3154
Rp3155
g162
tp3156
Rp3157
sbag5
(g74
g7
Ntp3158
Rp3159
(dp3160
g78
g4
(g79
(g80
(I0
tp3161
g82
tp3162
Rp3163
(I1
(I1
tp3164
g89
I00
S's\xc9\xdb\x8b\x14<\xc8>'
p3165
tp3166
bg95
tp3167
Rp3168
sg103
g4
(F240.0
g5
(g6
g7
Ntp3169
Rp3170
(dp3171
g11
g5
(g12
g13
(dp3172
g58
F1.0
stp3173
Rp3174
sg18
I-8637397557623547456
sbtp3175
Rp3176
sg112
I51
sg113
g4
(F5.0
g5
(g6
g7
Ntp3177
Rp3178
(dp3179
g11
g5
(g12
g13
(dp3180
g58
F1.0
stp3181
Rp3182
sg18
I-8637397557623547456
sbtp3183
Rp3184
sg122
g4
(F4.5
g5
(g6
g7
Ntp3185
Rp3186
(dp3187
g11
g5
(g12
g13
(dp3188
g127
F1.0
stp3189
Rp3190
sg18
I-4606935264605141194
sbtp3191
Rp3192
sg132
g4
(g79
(g80
(I0
tp3193
g82
tp3194
Rp3195
(I1
(tg89
I00
S'%\x06\x81\x95C\x8b\xe4?'
p3196
tp3197
bg5
(g6
g7
Ntp3198
Rp3199
(dp3200
g11
g5
(g12
g13
(dp3201
g142
F-1.0
sg98
F1.0
stp3202
Rp3203
sg18
I-2553330628009308297
sbtp3204
Rp3205
sg147
g4
(F3.0
g5
(g6
g7
Ntp3206
Rp3207
(dp3208
g11
g5
(g12
g13
(dp3209
g58
F1.0
stp3210
Rp3211
sg18
I-8637397557623547456
sbtp3212
Rp3213
sg156
g4
(g157
(g89
S'\x868\xd6\xc5m4\xdc\xbf'
p3214
tp3215
Rp3216
g162
tp3217
Rp3218
sbag5
(g74
g7
Ntp3219
Rp3220
(dp3221
g78
g4
(g79
(g80
(I0
tp3222
g82
tp3223
Rp3224
(I1
(I1
tp3225
g89
I00
S's\xc9\xdb\x8b\x14<\xc8>'
p3226
tp3227
bg95
tp3228
Rp3229
sg103
g4
(F240.0
g5
(g6
g7
Ntp3230
Rp3231
(dp3232
g11
g5
(g12
g13
(dp3233
g58
F1.0
stp3234
Rp3235
sg18
I-8637397557623547456
sbtp3236
Rp3237
sg112
I52
sg113
g4
(F5.0
g5
(g6
g7
Ntp3238
Rp3239
(dp3240
g11
g5
(g12
g13
(dp3241
g58
F1.0
stp3242
Rp3243
sg18
I-8637397557623547456
sbtp3244
Rp3245
sg122
g4
(F4.5
g5
(g6
g7
Ntp3246
Rp3247
(dp3248
g11
g5
(g12
g13
(dp3249
g127
F1.0
stp3250
Rp3251
sg18
I-4606935264605141194
sbtp3252
Rp3253
sg132
g4
(g79
(g80
(I0
tp3254
g82
tp3255
Rp3256
(I1
(tg89
I00
S'%\x06\x81\x95C\x8b\xe4?'
p3257
tp3258
bg5
(g6
g7
Ntp3259
Rp3260
(dp3261
g11
g5
(g12
g13
(dp3262
g142
F-1.0
sg98
F1.0
stp3263
Rp3264
sg18
I-2553330628009308297
sbtp3265
Rp3266
sg147
g4
(F3.0
g5
(g6
g7
Ntp3267
Rp3268
(dp3269
g11
g5
(g12
g13
(dp3270
g58
F1.0
stp3271
Rp3272
sg18
I-8637397557623547456
sbtp3273
Rp3274
sg156
g4
(g157
(g89
S'\xff9\xcc\x97\x17`\xcf\xbf'
p3275
tp3276
Rp3277
g162
tp3278
Rp3279
sbag5
(g74
g7
Ntp3280
Rp3281
(dp3282
g78
g4
(g79
(g80
(I0
tp3283
g82
tp3284
Rp3285
(I1
(I1
tp3286
g89
I00
S's\xc9\xdb\x8b\x14<\xc8>'
p3287
tp3288
bg95
tp3289
Rp3290
sg103
g4
(F240.0
g5
(g6
g7
Ntp3291
Rp3292
(dp3293
g11
g5
(g12
g13
(dp3294
g58
F1.0
stp3295
Rp3296
sg18
I-8637397557623547456
sbtp3297
Rp3298
sg112
I53
sg113
g4
(F5.0
g5
(g6
g7
Ntp3299
Rp3300
(dp3301
g11
g5
(g12
g13
(dp3302
g58
F1.0
stp3303
Rp3304
sg18
I-8637397557623547456
sbtp3305
Rp3306
sg122
g4
(F4.5
g5
(g6
g7
Ntp3307
Rp3308
(dp3309
g11
g5
(g12
g13
(dp3310
g127
F1.0
stp3311
Rp3312
sg18
I-4606935264605141194
sbtp3313
Rp3314
sg132
g4
(g79
(g80
(I0
tp3315
g82
tp3316
Rp3317
(I1
(tg89
I00
S'%\x06\x81\x95C\x8b\xe4?'
p3318
tp3319
bg5
(g6
g7
Ntp3320
Rp3321
(dp3322
g11
g5
(g12
g13
(dp3323
g142
F-1.0
sg98
F1.0
stp3324
Rp3325
sg18
I-2553330628009308297
sbtp3326
Rp3327
sg147
g4
(F3.0
g5
(g6
g7
Ntp3328
Rp3329
(dp3330
g11
g5
(g12
g13
(dp3331
g58
F1.0
stp3332
Rp3333
sg18
I-8637397557623547456
sbtp3334
Rp3335
sg156
g4
(g157
(g89
S'\xb5l\xad/\x12\xda\xd4\xbf'
p3336
tp3337
Rp3338
g162
tp3339
Rp3340
sbag5
(g74
g7
Ntp3341
Rp3342
(dp3343
g78
g4
(g79
(g80
(I0
tp3344
g82
tp3345
Rp3346
(I1
(I1
tp3347
g89
I00
S's\xc9\xdb\x8b\x14<\xc8>'
p3348
tp3349
bg95
tp3350
Rp3351
sg103
g4
(F240.0
g5
(g6
g7
Ntp3352
Rp3353
(dp3354
g11
g5
(g12
g13
(dp3355
g58
F1.0
stp3356
Rp3357
sg18
I-8637397557623547456
sbtp3358
Rp3359
sg112
I54
sg113
g4
(F5.0
g5
(g6
g7
Ntp3360
Rp3361
(dp3362
g11
g5
(g12
g13
(dp3363
g58
F1.0
stp3364
Rp3365
sg18
I-8637397557623547456
sbtp3366
Rp3367
sg122
g4
(F4.5
g5
(g6
g7
Ntp3368
Rp3369
(dp3370
g11
g5
(g12
g13
(dp3371
g127
F1.0
stp3372
Rp3373
sg18
I-4606935264605141194
sbtp3374
Rp3375
sg132
g4
(g79
(g80
(I0
tp3376
g82
tp3377
Rp3378
(I1
(tg89
I00
S'%\x06\x81\x95C\x8b\xe4?'
p3379
tp3380
bg5
(g6
g7
Ntp3381
Rp3382
(dp3383
g11
g5
(g12
g13
(dp3384
g142
F-1.0
sg98
F1.0
stp3385
Rp3386
sg18
I-2553330628009308297
sbtp3387
Rp3388
sg147
g4
(F3.0
g5
(g6
g7
Ntp3389
Rp3390
(dp3391
g11
g5
(g12
g13
(dp3392
g58
F1.0
stp3393
Rp3394
sg18
I-8637397557623547456
sbtp3395
Rp3396
sg156
g4
(g157
(g89
S'\x97s)\xae*\xfb\xd4\xbf'
p3397
tp3398
Rp3399
g162
tp3400
Rp3401
sbag5
(g74
g7
Ntp3402
Rp3403
(dp3404
g78
g4
(g79
(g80
(I0
tp3405
g82
tp3406
Rp3407
(I1
(I1
tp3408
g89
I00
S's\xc9\xdb\x8b\x14<\xc8>'
p3409
tp3410
bg95
tp3411
Rp3412
sg103
g4
(F240.0
g5
(g6
g7
Ntp3413
Rp3414
(dp3415
g11
g5
(g12
g13
(dp3416
g58
F1.0
stp3417
Rp3418
sg18
I-8637397557623547456
sbtp3419
Rp3420
sg112
I55
sg113
g4
(F5.0
g5
(g6
g7
Ntp3421
Rp3422
(dp3423
g11
g5
(g12
g13
(dp3424
g58
F1.0
stp3425
Rp3426
sg18
I-8637397557623547456
sbtp3427
Rp3428
sg122
g4
(F4.5
g5
(g6
g7
Ntp3429
Rp3430
(dp3431
g11
g5
(g12
g13
(dp3432
g127
F1.0
stp3433
Rp3434
sg18
I-4606935264605141194
sbtp3435
Rp3436
sg132
g4
(g79
(g80
(I0
tp3437
g82
tp3438
Rp3439
(I1
(tg89
I00
S'%\x06\x81\x95C\x8b\xe4?'
p3440
tp3441
bg5
(g6
g7
Ntp3442
Rp3443
(dp3444
g11
g5
(g12
g13
(dp3445
g142
F-1.0
sg98
F1.0
stp3446
Rp3447
sg18
I-2553330628009308297
sbtp3448
Rp3449
sg147
g4
(F3.0
g5
(g6
g7
Ntp3450
Rp3451
(dp3452
g11
g5
(g12
g13
(dp3453
g58
F1.0
stp3454
Rp3455
sg18
I-8637397557623547456
sbtp3456
Rp3457
sg156
g4
(g157
(g89
S'xz\xa5,C\x1c\xd5\xbf'
p3458
tp3459
Rp3460
g162
tp3461
Rp3462
sbag5
(g74
g7
Ntp3463
Rp3464
(dp3465
g78
g4
(g79
(g80
(I0
tp3466
g82
tp3467
Rp3468
(I1
(I1
tp3469
g89
I00
S's\xc9\xdb\x8b\x14<\xc8>'
p3470
tp3471
bg95
tp3472
Rp3473
sg103
g4
(F240.0
g5
(g6
g7
Ntp3474
Rp3475
(dp3476
g11
g5
(g12
g13
(dp3477
g58
F1.0
stp3478
Rp3479
sg18
I-8637397557623547456
sbtp3480
Rp3481
sg112
I56
sg113
g4
(F5.0
g5
(g6
g7
Ntp3482
Rp3483
(dp3484
g11
g5
(g12
g13
(dp3485
g58
F1.0
stp3486
Rp3487
sg18
I-8637397557623547456
sbtp3488
Rp3489
sg122
g4
(F4.5
g5
(g6
g7
Ntp3490
Rp3491
(dp3492
g11
g5
(g12
g13
(dp3493
g127
F1.0
stp3494
Rp3495
sg18
I-4606935264605141194
sbtp3496
Rp3497
sg132
g4
(g79
(g80
(I0
tp3498
g82
tp3499
Rp3500
(I1
(tg89
I00
S'%\x06\x81\x95C\x8b\xe4?'
p3501
tp3502
bg5
(g6
g7
Ntp3503
Rp3504
(dp3505
g11
g5
(g12
g13
(dp3506
g142
F-1.0
sg98
F1.0
stp3507
Rp3508
sg18
I-2553330628009308297
sbtp3509
Rp3510
sg147
g4
(F3.0
g5
(g6
g7
Ntp3511
Rp3512
(dp3513
g11
g5
(g12
g13
(dp3514
g58
F1.0
stp3515
Rp3516
sg18
I-8637397557623547456
sbtp3517
Rp3518
sg156
g4
(g157
(g89
S'I\xbaf\xf2\xcd6\xd5\xbf'
p3519
tp3520
Rp3521
g162
tp3522
Rp3523
sbag5
(g74
g7
Ntp3524
Rp3525
(dp3526
g78
g4
(g79
(g80
(I0
tp3527
g82
tp3528
Rp3529
(I1
(I1
tp3530
g89
I00
S's\xc9\xdb\x8b\x14<\xc8>'
p3531
tp3532
bg95
tp3533
Rp3534
sg103
g4
(F240.0
g5
(g6
g7
Ntp3535
Rp3536
(dp3537
g11
g5
(g12
g13
(dp3538
g58
F1.0
stp3539
Rp3540
sg18
I-8637397557623547456
sbtp3541
Rp3542
sg112
I57
sg113
g4
(F5.0
g5
(g6
g7
Ntp3543
Rp3544
(dp3545
g11
g5
(g12
g13
(dp3546
g58
F1.0
stp3547
Rp3548
sg18
I-8637397557623547456
sbtp3549
Rp3550
sg122
g4
(F4.5
g5
(g6
g7
Ntp3551
Rp3552
(dp3553
g11
g5
(g12
g13
(dp3554
g127
F1.0
stp3555
Rp3556
sg18
I-4606935264605141194
sbtp3557
Rp3558
sg132
g4
(g79
(g80
(I0
tp3559
g82
tp3560
Rp3561
(I1
(tg89
I00
S'%\x06\x81\x95C\x8b\xe4?'
p3562
tp3563
bg5
(g6
g7
Ntp3564
Rp3565
(dp3566
g11
g5
(g12
g13
(dp3567
g142
F-1.0
sg98
F1.0
stp3568
Rp3569
sg18
I-2553330628009308297
sbtp3570
Rp3571
sg147
g4
(F3.0
g5
(g6
g7
Ntp3572
Rp3573
(dp3574
g11
g5
(g12
g13
(dp3575
g58
F1.0
stp3576
Rp3577
sg18
I-8637397557623547456
sbtp3578
Rp3579
sg156
g4
(g157
(g89
S'T\xe8\xbc\xc6.Q\xd5\xbf'
p3580
tp3581
Rp3582
g162
tp3583
Rp3584
sbag5
(g74
g7
Ntp3585
Rp3586
(dp3587
g78
g4
(g79
(g80
(I0
tp3588
g82
tp3589
Rp3590
(I1
(I1
tp3591
g89
I00
S's\xc9\xdb\x8b\x14<\xc8>'
p3592
tp3593
bg95
tp3594
Rp3595
sg103
g4
(F240.0
g5
(g6
g7
Ntp3596
Rp3597
(dp3598
g11
g5
(g12
g13
(dp3599
g58
F1.0
stp3600
Rp3601
sg18
I-8637397557623547456
sbtp3602
Rp3603
sg112
I58
sg113
g4
(F5.0
g5
(g6
g7
Ntp3604
Rp3605
(dp3606
g11
g5
(g12
g13
(dp3607
g58
F1.0
stp3608
Rp3609
sg18
I-8637397557623547456
sbtp3610
Rp3611
sg122
g4
(F4.5
g5
(g6
g7
Ntp3612
Rp3613
(dp3614
g11
g5
(g12
g13
(dp3615
g127
F1.0
stp3616
Rp3617
sg18
I-4606935264605141194
sbtp3618
Rp3619
sg132
g4
(g79
(g80
(I0
tp3620
g82
tp3621
Rp3622
(I1
(tg89
I00
S'%\x06\x81\x95C\x8b\xe4?'
p3623
tp3624
bg5
(g6
g7
Ntp3625
Rp3626
(dp3627
g11
g5
(g12
g13
(dp3628
g142
F-1.0
sg98
F1.0
stp3629
Rp3630
sg18
I-2553330628009308297
sbtp3631
Rp3632
sg147
g4
(F3.0
g5
(g6
g7
Ntp3633
Rp3634
(dp3635
g11
g5
(g12
g13
(dp3636
g58
F1.0
stp3637
Rp3638
sg18
I-8637397557623547456
sbtp3639
Rp3640
sg156
g4
(g157
(g89
S'$(~\x8c\xb9k\xd5\xbf'
p3641
tp3642
Rp3643
g162
tp3644
Rp3645
sbag5
(g74
g7
Ntp3646
Rp3647
(dp3648
g78
g4
(g79
(g80
(I0
tp3649
g82
tp3650
Rp3651
(I1
(I1
tp3652
g89
I00
S's\xc9\xdb\x8b\x14<\xc8>'
p3653
tp3654
bg95
tp3655
Rp3656
sg103
g4
(F240.0
g5
(g6
g7
Ntp3657
Rp3658
(dp3659
g11
g5
(g12
g13
(dp3660
g58
F1.0
stp3661
Rp3662
sg18
I-8637397557623547456
sbtp3663
Rp3664
sg112
I59
sg113
g4
(F5.0
g5
(g6
g7
Ntp3665
Rp3666
(dp3667
g11
g5
(g12
g13
(dp3668
g58
F1.0
stp3669
Rp3670
sg18
I-8637397557623547456
sbtp3671
Rp3672
sg122
g4
(F4.5
g5
(g6
g7
Ntp3673
Rp3674
(dp3675
g11
g5
(g12
g13
(dp3676
g127
F1.0
stp3677
Rp3678
sg18
I-4606935264605141194
sbtp3679
Rp3680
sg132
g4
(g79
(g80
(I0
tp3681
g82
tp3682
Rp3683
(I1
(tg89
I00
S'%\x06\x81\x95C\x8b\xe4?'
p3684
tp3685
bg5
(g6
g7
Ntp3686
Rp3687
(dp3688
g11
g5
(g12
g13
(dp3689
g142
F-1.0
sg98
F1.0
stp3690
Rp3691
sg18
I-2553330628009308297
sbtp3692
Rp3693
sg147
g4
(F3.0
g5
(g6
g7
Ntp3694
Rp3695
(dp3696
g11
g5
(g12
g13
(dp3697
g58
F1.0
stp3698
Rp3699
sg18
I-8637397557623547456
sbtp3700
Rp3701
sg156
g4
(g157
(g89
S'.V\xd4`\x1a\x86\xd5\xbf'
p3702
tp3703
Rp3704
g162
tp3705
Rp3706
sbag5
(g74
g7
Ntp3707
Rp3708
(dp3709
g78
g4
(g79
(g80
(I0
tp3710
g82
tp3711
Rp3712
(I1
(I1
tp3713
g89
I00
S's\xc9\xdb\x8b\x14<\xc8>'
p3714
tp3715
bg95
tp3716
Rp3717
sg103
g4
(F240.0
g5
(g6
g7
Ntp3718
Rp3719
(dp3720
g11
g5
(g12
g13
(dp3721
g58
F1.0
stp3722
Rp3723
sg18
I-8637397557623547456
sbtp3724
Rp3725
sg112
I60
sg113
g4
(F5.0
g5
(g6
g7
Ntp3726
Rp3727
(dp3728
g11
g5
(g12
g13
(dp3729
g58
F1.0
stp3730
Rp3731
sg18
I-8637397557623547456
sbtp3732
Rp3733
sg122
g4
(F4.5
g5
(g6
g7
Ntp3734
Rp3735
(dp3736
g11
g5
(g12
g13
(dp3737
g127
F1.0
stp3738
Rp3739
sg18
I-4606935264605141194
sbtp3740
Rp3741
sg132
g4
(g79
(g80
(I0
tp3742
g82
tp3743
Rp3744
(I1
(tg89
I00
S'%\x06\x81\x95C\x8b\xe4?'
p3745
tp3746
bg5
(g6
g7
Ntp3747
Rp3748
(dp3749
g11
g5
(g12
g13
(dp3750
g142
F-1.0
sg98
F1.0
stp3751
Rp3752
sg18
I-2553330628009308297
sbtp3753
Rp3754
sg147
g4
(F3.0
g5
(g6
g7
Ntp3755
Rp3756
(dp3757
g11
g5
(g12
g13
(dp3758
g58
F1.0
stp3759
Rp3760
sg18
I-8637397557623547456
sbtp3761
Rp3762
sg156
g4
(g157
(g89
S'\xff\x95\x95&\xa5\xa0\xd5\xbf'
p3763
tp3764
Rp3765
g162
tp3766
Rp3767
sbag5
(g74
g7
Ntp3768
Rp3769
(dp3770
g78
g4
(g79
(g80
(I0
tp3771
g82
tp3772
Rp3773
(I1
(I1
tp3774
g89
I00
S's\xc9\xdb\x8b\x14<\xc8>'
p3775
tp3776
bg95
tp3777
Rp3778
sg103
g4
(F240.0
g5
(g6
g7
Ntp3779
Rp3780
(dp3781
g11
g5
(g12
g13
(dp3782
g58
F1.0
stp3783
Rp3784
sg18
I-8637397557623547456
sbtp3785
Rp3786
sg112
I61
sg113
g4
(F5.0
g5
(g6
g7
Ntp3787
Rp3788
(dp3789
g11
g5
(g12
g13
(dp3790
g58
F1.0
stp3791
Rp3792
sg18
I-8637397557623547456
sbtp3793
Rp3794
sg122
g4
(F4.5
g5
(g6
g7
Ntp3795
Rp3796
(dp3797
g11
g5
(g12
g13
(dp3798
g127
F1.0
stp3799
Rp3800
sg18
I-4606935264605141194
sbtp3801
Rp3802
sg132
g4
(g79
(g80
(I0
tp3803
g82
tp3804
Rp3805
(I1
(tg89
I00
S'%\x06\x81\x95C\x8b\xe4?'
p3806
tp3807
bg5
(g6
g7
Ntp3808
Rp3809
(dp3810
g11
g5
(g12
g13
(dp3811
g142
F-1.0
sg98
F1.0
stp3812
Rp3813
sg18
I-2553330628009308297
sbtp3814
Rp3815
sg147
g4
(F3.0
g5
(g6
g7
Ntp3816
Rp3817
(dp3818
g11
g5
(g12
g13
(dp3819
g58
F1.0
stp3820
Rp3821
sg18
I-8637397557623547456
sbtp3822
Rp3823
sg156
g4
(g157
(g89
S'\xe0\x9c\x11\xa5\xbd\xc1\xd5\xbf'
p3824
tp3825
Rp3826
g162
tp3827
Rp3828
sbag5
(g74
g7
Ntp3829
Rp3830
(dp3831
g78
g4
(g79
(g80
(I0
tp3832
g82
tp3833
Rp3834
(I1
(I1
tp3835
g89
I00
S's\xc9\xdb\x8b\x14<\xc8>'
p3836
tp3837
bg95
tp3838
Rp3839
sg103
g4
(F240.0
g5
(g6
g7
Ntp3840
Rp3841
(dp3842
g11
g5
(g12
g13
(dp3843
g58
F1.0
stp3844
Rp3845
sg18
I-8637397557623547456
sbtp3846
Rp3847
sg112
I62
sg113
g4
(F5.0
g5
(g6
g7
Ntp3848
Rp3849
(dp3850
g11
g5
(g12
g13
(dp3851
g58
F1.0
stp3852
Rp3853
sg18
I-8637397557623547456
sbtp3854
Rp3855
sg122
g4
(F4.5
g5
(g6
g7
Ntp3856
Rp3857
(dp3858
g11
g5
(g12
g13
(dp3859
g127
F1.0
stp3860
Rp3861
sg18
I-4606935264605141194
sbtp3862
Rp3863
sg132
g4
(g79
(g80
(I0
tp3864
g82
tp3865
Rp3866
(I1
(tg89
I00
S'%\x06\x81\x95C\x8b\xe4?'
p3867
tp3868
bg5
(g6
g7
Ntp3869
Rp3870
(dp3871
g11
g5
(g12
g13
(dp3872
g142
F-1.0
sg98
F1.0
stp3873
Rp3874
sg18
I-2553330628009308297
sbtp3875
Rp3876
sg147
g4
(F3.0
g5
(g6
g7
Ntp3877
Rp3878
(dp3879
g11
g5
(g12
g13
(dp3880
g58
F1.0
stp3881
Rp3882
sg18
I-8637397557623547456
sbtp3883
Rp3884
sg156
g4
(g157
(g89
S'\x1b\r\xe0-\x90\xa0\xcc\xbf'
p3885
tp3886
Rp3887
g162
tp3888
Rp3889
sbag5
(g74
g7
Ntp3890
Rp3891
(dp3892
g78
g4
(g79
(g80
(I0
tp3893
g82
tp3894
Rp3895
(I1
(I1
tp3896
g89
I00
S's\xc9\xdb\x8b\x14<\xc8>'
p3897
tp3898
bg95
tp3899
Rp3900
sg103
g4
(F240.0
g5
(g6
g7
Ntp3901
Rp3902
(dp3903
g11
g5
(g12
g13
(dp3904
g58
F1.0
stp3905
Rp3906
sg18
I-8637397557623547456
sbtp3907
Rp3908
sg112
I63
sg113
g4
(F5.0
g5
(g6
g7
Ntp3909
Rp3910
(dp3911
g11
g5
(g12
g13
(dp3912
g58
F1.0
stp3913
Rp3914
sg18
I-8637397557623547456
sbtp3915
Rp3916
sg122
g4
(F4.5
g5
(g6
g7
Ntp3917
Rp3918
(dp3919
g11
g5
(g12
g13
(dp3920
g127
F1.0
stp3921
Rp3922
sg18
I-4606935264605141194
sbtp3923
Rp3924
sg132
g4
(g79
(g80
(I0
tp3925
g82
tp3926
Rp3927
(I1
(tg89
I00
S'%\x06\x81\x95C\x8b\xe4?'
p3928
tp3929
bg5
(g6
g7
Ntp3930
Rp3931
(dp3932
g11
g5
(g12
g13
(dp3933
g142
F-1.0
sg98
F1.0
stp3934
Rp3935
sg18
I-2553330628009308297
sbtp3936
Rp3937
sg147
g4
(F3.0
g5
(g6
g7
Ntp3938
Rp3939
(dp3940
g11
g5
(g12
g13
(dp3941
g58
F1.0
stp3942
Rp3943
sg18
I-8637397557623547456
sbtp3944
Rp3945
sg156
g4
(g157
(g89
S"\xa2(\xd0'\xf2$\xcd\xbf"
p3946
tp3947
Rp3948
g162
tp3949
Rp3950
sbag5
(g74
g7
Ntp3951
Rp3952
(dp3953
g78
g4
(g79
(g80
(I0
tp3954
g82
tp3955
Rp3956
(I1
(I1
tp3957
g89
I00
S's\xc9\xdb\x8b\x14<\xc8>'
p3958
tp3959
bg95
tp3960
Rp3961
sg103
g4
(F240.0
g5
(g6
g7
Ntp3962
Rp3963
(dp3964
g11
g5
(g12
g13
(dp3965
g58
F1.0
stp3966
Rp3967
sg18
I-8637397557623547456
sbtp3968
Rp3969
sg112
I64
sg113
g4
(F5.0
g5
(g6
g7
Ntp3970
Rp3971
(dp3972
g11
g5
(g12
g13
(dp3973
g58
F1.0
stp3974
Rp3975
sg18
I-8637397557623547456
sbtp3976
Rp3977
sg122
g4
(F4.5
g5
(g6
g7
Ntp3978
Rp3979
(dp3980
g11
g5
(g12
g13
(dp3981
g127
F1.0
stp3982
Rp3983
sg18
I-4606935264605141194
sbtp3984
Rp3985
sg132
g4
(g79
(g80
(I0
tp3986
g82
tp3987
Rp3988
(I1
(tg89
I00
S'%\x06\x81\x95C\x8b\xe4?'
p3989
tp3990
bg5
(g6
g7
Ntp3991
Rp3992
(dp3993
g11
g5
(g12
g13
(dp3994
g142
F-1.0
sg98
F1.0
stp3995
Rp3996
sg18
I-2553330628009308297
sbtp3997
Rp3998
sg147
g4
(F3.0
g5
(g6
g7
Ntp3999
Rp4000
(dp4001
g11
g5
(g12
g13
(dp4002
g58
F1.0
stp4003
Rp4004
sg18
I-8637397557623547456
sbtp4005
Rp4006
sg156
g4
(g157
(g89
S'x\x7f\xbcW\xadL\xd6\xbf'
p4007
tp4008
Rp4009
g162
tp4010
Rp4011
sbag5
(g74
g7
Ntp4012
Rp4013
(dp4014
g78
g4
(g79
(g80
(I0
tp4015
g82
tp4016
Rp4017
(I1
(I1
tp4018
g89
I00
S's\xc9\xdb\x8b\x14<\xc8>'
p4019
tp4020
bg95
tp4021
Rp4022
sg103
g4
(F240.0
g5
(g6
g7
Ntp4023
Rp4024
(dp4025
g11
g5
(g12
g13
(dp4026
g58
F1.0
stp4027
Rp4028
sg18
I-8637397557623547456
sbtp4029
Rp4030
sg112
I65
sg113
g4
(F5.0
g5
(g6
g7
Ntp4031
Rp4032
(dp4033
g11
g5
(g12
g13
(dp4034
g58
F1.0
stp4035
Rp4036
sg18
I-8637397557623547456
sbtp4037
Rp4038
sg122
g4
(F4.5
g5
(g6
g7
Ntp4039
Rp4040
(dp4041
g11
g5
(g12
g13
(dp4042
g127
F1.0
stp4043
Rp4044
sg18
I-4606935264605141194
sbtp4045
Rp4046
sg132
g4
(g79
(g80
(I0
tp4047
g82
tp4048
Rp4049
(I1
(tg89
I00
S'%\x06\x81\x95C\x8b\xe4?'
p4050
tp4051
bg5
(g6
g7
Ntp4052
Rp4053
(dp4054
g11
g5
(g12
g13
(dp4055
g142
F-1.0
sg98
F1.0
stp4056
Rp4057
sg18
I-2553330628009308297
sbtp4058
Rp4059
sg147
g4
(F3.0
g5
(g6
g7
Ntp4060
Rp4061
(dp4062
g11
g5
(g12
g13
(dp4063
g58
F1.0
stp4064
Rp4065
sg18
I-8637397557623547456
sbtp4066
Rp4067
sg156
g4
(g157
(g89
S'\xd1"\xdb\xf9~j\xd6\xbf'
p4068
tp4069
Rp4070
g162
tp4071
Rp4072
sbag5
(g74
g7
Ntp4073
Rp4074
(dp4075
g78
g4
(g79
(g80
(I0
tp4076
g82
tp4077
Rp4078
(I1
(I1
tp4079
g89
I00
S's\xc9\xdb\x8b\x14<\xc8>'
p4080
tp4081
bg95
tp4082
Rp4083
sg103
g4
(F240.0
g5
(g6
g7
Ntp4084
Rp4085
(dp4086
g11
g5
(g12
g13
(dp4087
g58
F1.0
stp4088
Rp4089
sg18
I-8637397557623547456
sbtp4090
Rp4091
sg112
I66
sg113
g4
(F5.0
g5
(g6
g7
Ntp4092
Rp4093
(dp4094
g11
g5
(g12
g13
(dp4095
g58
F1.0
stp4096
Rp4097
sg18
I-8637397557623547456
sbtp4098
Rp4099
sg122
g4
(F4.5
g5
(g6
g7
Ntp4100
Rp4101
(dp4102
g11
g5
(g12
g13
(dp4103
g127
F1.0
stp4104
Rp4105
sg18
I-4606935264605141194
sbtp4106
Rp4107
sg132
g4
(g79
(g80
(I0
tp4108
g82
tp4109
Rp4110
(I1
(tg89
I00
S'%\x06\x81\x95C\x8b\xe4?'
p4111
tp4112
bg5
(g6
g7
Ntp4113
Rp4114
(dp4115
g11
g5
(g12
g13
(dp4116
g142
F-1.0
sg98
F1.0
stp4117
Rp4118
sg18
I-2553330628009308297
sbtp4119
Rp4120
sg147
g4
(F3.0
g5
(g6
g7
Ntp4121
Rp4122
(dp4123
g11
g5
(g12
g13
(dp4124
g58
F1.0
stp4125
Rp4126
sg18
I-8637397557623547456
sbtp4127
Rp4128
sg156
g4
(g157
(g89
S'c\xb4\x8e\xaa&\x88\xd6\xbf'
p4129
tp4130
Rp4131
g162
tp4132
Rp4133
sbag5
(g74
g7
Ntp4134
Rp4135
(dp4136
g78
g4
(g79
(g80
(I0
tp4137
g82
tp4138
Rp4139
(I1
(I1
tp4140
g89
I00
S's\xc9\xdb\x8b\x14<\xc8>'
p4141
tp4142
bg95
tp4143
Rp4144
sg103
g4
(F240.0
g5
(g6
g7
Ntp4145
Rp4146
(dp4147
g11
g5
(g12
g13
(dp4148
g58
F1.0
stp4149
Rp4150
sg18
I-8637397557623547456
sbtp4151
Rp4152
sg112
I67
sg113
g4
(F5.0
g5
(g6
g7
Ntp4153
Rp4154
(dp4155
g11
g5
(g12
g13
(dp4156
g58
F1.0
stp4157
Rp4158
sg18
I-8637397557623547456
sbtp4159
Rp4160
sg122
g4
(F4.5
g5
(g6
g7
Ntp4161
Rp4162
(dp4163
g11
g5
(g12
g13
(dp4164
g127
F1.0
stp4165
Rp4166
sg18
I-4606935264605141194
sbtp4167
Rp4168
sg132
g4
(g79
(g80
(I0
tp4169
g82
tp4170
Rp4171
(I1
(tg89
I00
S'%\x06\x81\x95C\x8b\xe4?'
p4172
tp4173
bg5
(g6
g7
Ntp4174
Rp4175
(dp4176
g11
g5
(g12
g13
(dp4177
g142
F-1.0
sg98
F1.0
stp4178
Rp4179
sg18
I-2553330628009308297
sbtp4180
Rp4181
sg147
g4
(F3.0
g5
(g6
g7
Ntp4182
Rp4183
(dp4184
g11
g5
(g12
g13
(dp4185
g58
F1.0
stp4186
Rp4187
sg18
I-8637397557623547456
sbtp4188
Rp4189
sg156
g4
(g157
(g89
S'E\xbb\n)?\xa9\xd6\xbf'
p4190
tp4191
Rp4192
g162
tp4193
Rp4194
sbag5
(g74
g7
Ntp4195
Rp4196
(dp4197
g78
g4
(g79
(g80
(I0
tp4198
g82
tp4199
Rp4200
(I1
(I1
tp4201
g89
I00
S's\xc9\xdb\x8b\x14<\xc8>'
p4202
tp4203
bg95
tp4204
Rp4205
sg103
g4
(F240.0
g5
(g6
g7
Ntp4206
Rp4207
(dp4208
g11
g5
(g12
g13
(dp4209
g58
F1.0
stp4210
Rp4211
sg18
I-8637397557623547456
sbtp4212
Rp4213
sg112
I68
sg113
g4
(F5.0
g5
(g6
g7
Ntp4214
Rp4215
(dp4216
g11
g5
(g12
g13
(dp4217
g58
F1.0
stp4218
Rp4219
sg18
I-8637397557623547456
sbtp4220
Rp4221
sg122
g4
(F4.5
g5
(g6
g7
Ntp4222
Rp4223
(dp4224
g11
g5
(g12
g13
(dp4225
g127
F1.0
stp4226
Rp4227
sg18
I-4606935264605141194
sbtp4228
Rp4229
sg132
g4
(g79
(g80
(I0
tp4230
g82
tp4231
Rp4232
(I1
(tg89
I00
S'%\x06\x81\x95C\x8b\xe4?'
p4233
tp4234
bg5
(g6
g7
Ntp4235
Rp4236
(dp4237
g11
g5
(g12
g13
(dp4238
g142
F-1.0
sg98
F1.0
stp4239
Rp4240
sg18
I-2553330628009308297
sbtp4241
Rp4242
sg147
g4
(F3.0
g5
(g6
g7
Ntp4243
Rp4244
(dp4245
g11
g5
(g12
g13
(dp4246
g58
F1.0
stp4247
Rp4248
sg18
I-8637397557623547456
sbtp4249
Rp4250
sg156
g4
(g157
(g89
S"'\xc2\x86\xa7W\xca\xd6\xbf"
p4251
tp4252
Rp4253
g162
tp4254
Rp4255
sbag5
(g74
g7
Ntp4256
Rp4257
(dp4258
g78
g4
(g79
(g80
(I0
tp4259
g82
tp4260
Rp4261
(I1
(I1
tp4262
g89
I00
S's\xc9\xdb\x8b\x14<\xc8>'
p4263
tp4264
bg95
tp4265
Rp4266
sg103
g4
(F240.0
g5
(g6
g7
Ntp4267
Rp4268
(dp4269
g11
g5
(g12
g13
(dp4270
g58
F1.0
stp4271
Rp4272
sg18
I-8637397557623547456
sbtp4273
Rp4274
sg112
I69
sg113
g4
(F5.0
g5
(g6
g7
Ntp4275
Rp4276
(dp4277
g11
g5
(g12
g13
(dp4278
g58
F1.0
stp4279
Rp4280
sg18
I-8637397557623547456
sbtp4281
Rp4282
sg122
g4
(F4.5
g5
(g6
g7
Ntp4283
Rp4284
(dp4285
g11
g5
(g12
g13
(dp4286
g127
F1.0
stp4287
Rp4288
sg18
I-4606935264605141194
sbtp4289
Rp4290
sg132
g4
(g79
(g80
(I0
tp4291
g82
tp4292
Rp4293
(I1
(tg89
I00
S'%\x06\x81\x95C\x8b\xe4?'
p4294
tp4295
bg5
(g6
g7
Ntp4296
Rp4297
(dp4298
g11
g5
(g12
g13
(dp4299
g142
F-1.0
sg98
F1.0
stp4300
Rp4301
sg18
I-2553330628009308297
sbtp4302
Rp4303
sg147
g4
(F3.0
g5
(g6
g7
Ntp4304
Rp4305
(dp4306
g11
g5
(g12
g13
(dp4307
g58
F1.0
stp4308
Rp4309
sg18
I-8637397557623547456
sbtp4310
Rp4311
sg156
g4
(g157
(g89
S'\x08\xc9\x02&p\xeb\xd6\xbf'
p4312
tp4313
Rp4314
g162
tp4315
Rp4316
sbag5
(g74
g7
Ntp4317
Rp4318
(dp4319
g78
g4
(g79
(g80
(I0
tp4320
g82
tp4321
Rp4322
(I1
(I1
tp4323
g89
I00
S's\xc9\xdb\x8b\x14<\xc8>'
p4324
tp4325
bg95
tp4326
Rp4327
sg103
g4
(F240.0
g5
(g6
g7
Ntp4328
Rp4329
(dp4330
g11
g5
(g12
g13
(dp4331
g58
F1.0
stp4332
Rp4333
sg18
I-8637397557623547456
sbtp4334
Rp4335
sg112
I70
sg113
g4
(F5.0
g5
(g6
g7
Ntp4336
Rp4337
(dp4338
g11
g5
(g12
g13
(dp4339
g58
F1.0
stp4340
Rp4341
sg18
I-8637397557623547456
sbtp4342
Rp4343
sg122
g4
(F4.5
g5
(g6
g7
Ntp4344
Rp4345
(dp4346
g11
g5
(g12
g13
(dp4347
g127
F1.0
stp4348
Rp4349
sg18
I-4606935264605141194
sbtp4350
Rp4351
sg132
g4
(g79
(g80
(I0
tp4352
g82
tp4353
Rp4354
(I1
(tg89
I00
S'%\x06\x81\x95C\x8b\xe4?'
p4355
tp4356
bg5
(g6
g7
Ntp4357
Rp4358
(dp4359
g11
g5
(g12
g13
(dp4360
g142
F-1.0
sg98
F1.0
stp4361
Rp4362
sg18
I-2553330628009308297
sbtp4363
Rp4364
sg147
g4
(F3.0
g5
(g6
g7
Ntp4365
Rp4366
(dp4367
g11
g5
(g12
g13
(dp4368
g58
F1.0
stp4369
Rp4370
sg18
I-8637397557623547456
sbtp4371
Rp4372
sg156
g4
(g157
(g89
S'\x12\xf7X\xfa\xd0\x05\xd7\xbf'
p4373
tp4374
Rp4375
g162
tp4376
Rp4377
sbag5
(g74
g7
Ntp4378
Rp4379
(dp4380
g78
g4
(g79
(g80
(I0
tp4381
g82
tp4382
Rp4383
(I1
(I1
tp4384
g89
I00
S's\xc9\xdb\x8b\x14<\xc8>'
p4385
tp4386
bg95
tp4387
Rp4388
sg103
g4
(F240.0
g5
(g6
g7
Ntp4389
Rp4390
(dp4391
g11
g5
(g12
g13
(dp4392
g58
F1.0
stp4393
Rp4394
sg18
I-8637397557623547456
sbtp4395
Rp4396
sg112
I71
sg113
g4
(F5.0
g5
(g6
g7
Ntp4397
Rp4398
(dp4399
g11
g5
(g12
g13
(dp4400
g58
F1.0
stp4401
Rp4402
sg18
I-8637397557623547456
sbtp4403
Rp4404
sg122
g4
(F4.5
g5
(g6
g7
Ntp4405
Rp4406
(dp4407
g11
g5
(g12
g13
(dp4408
g127
F1.0
stp4409
Rp4410
sg18
I-4606935264605141194
sbtp4411
Rp4412
sg132
g4
(g79
(g80
(I0
tp4413
g82
tp4414
Rp4415
(I1
(tg89
I00
S'%\x06\x81\x95C\x8b\xe4?'
p4416
tp4417
bg5
(g6
g7
Ntp4418
Rp4419
(dp4420
g11
g5
(g12
g13
(dp4421
g142
F-1.0
sg98
F1.0
stp4422
Rp4423
sg18
I-2553330628009308297
sbtp4424
Rp4425
sg147
g4
(F3.0
g5
(g6
g7
Ntp4426
Rp4427
(dp4428
g11
g5
(g12
g13
(dp4429
g58
F1.0
stp4430
Rp4431
sg18
I-8637397557623547456
sbtp4432
Rp4433
sg156
g4
(g157
(g89
S'\xe36\x1a\xc0[ \xd7\xbf'
p4434
tp4435
Rp4436
g162
tp4437
Rp4438
sbag5
(g74
g7
Ntp4439
Rp4440
(dp4441
g78
g4
(g79
(g80
(I0
tp4442
g82
tp4443
Rp4444
(I1
(I1
tp4445
g89
I00
S's\xc9\xdb\x8b\x14<\xc8>'
p4446
tp4447
bg95
tp4448
Rp4449
sg103
g4
(F240.0
g5
(g6
g7
Ntp4450
Rp4451
(dp4452
g11
g5
(g12
g13
(dp4453
g58
F1.0
stp4454
Rp4455
sg18
I-8637397557623547456
sbtp4456
Rp4457
sg112
I72
sg113
g4
(F5.0
g5
(g6
g7
Ntp4458
Rp4459
(dp4460
g11
g5
(g12
g13
(dp4461
g58
F1.0
stp4462
Rp4463
sg18
I-8637397557623547456
sbtp4464
Rp4465
sg122
g4
(F4.5
g5
(g6
g7
Ntp4466
Rp4467
(dp4468
g11
g5
(g12
g13
(dp4469
g127
F1.0
stp4470
Rp4471
sg18
I-4606935264605141194
sbtp4472
Rp4473
sg132
g4
(g79
(g80
(I0
tp4474
g82
tp4475
Rp4476
(I1
(tg89
I00
S'%\x06\x81\x95C\x8b\xe4?'
p4477
tp4478
bg5
(g6
g7
Ntp4479
Rp4480
(dp4481
g11
g5
(g12
g13
(dp4482
g142
F-1.0
sg98
F1.0
stp4483
Rp4484
sg18
I-2553330628009308297
sbtp4485
Rp4486
sg147
g4
(F3.0
g5
(g6
g7
Ntp4487
Rp4488
(dp4489
g11
g5
(g12
g13
(dp4490
g58
F1.0
stp4491
Rp4492
sg18
I-8637397557623547456
sbtp4493
Rp4494
sg156
g4
(g157
(g89
S'\xc4=\x96>tA\xd7\xbf'
p4495
tp4496
Rp4497
g162
tp4498
Rp4499
sbag5
(g74
g7
Ntp4500
Rp4501
(dp4502
g78
g4
(g79
(g80
(I0
tp4503
g82
tp4504
Rp4505
(I1
(I1
tp4506
g89
I00
S's\xc9\xdb\x8b\x14<\xc8>'
p4507
tp4508
bg95
tp4509
Rp4510
sg103
g4
(F240.0
g5
(g6
g7
Ntp4511
Rp4512
(dp4513
g11
g5
(g12
g13
(dp4514
g58
F1.0
stp4515
Rp4516
sg18
I-8637397557623547456
sbtp4517
Rp4518
sg112
I73
sg113
g4
(F5.0
g5
(g6
g7
Ntp4519
Rp4520
(dp4521
g11
g5
(g12
g13
(dp4522
g58
F1.0
stp4523
Rp4524
sg18
I-8637397557623547456
sbtp4525
Rp4526
sg122
g4
(F4.5
g5
(g6
g7
Ntp4527
Rp4528
(dp4529
g11
g5
(g12
g13
(dp4530
g127
F1.0
stp4531
Rp4532
sg18
I-4606935264605141194
sbtp4533
Rp4534
sg132
g4
(g79
(g80
(I0
tp4535
g82
tp4536
Rp4537
(I1
(tg89
I00
S'%\x06\x81\x95C\x8b\xe4?'
p4538
tp4539
bg5
(g6
g7
Ntp4540
Rp4541
(dp4542
g11
g5
(g12
g13
(dp4543
g142
F-1.0
sg98
F1.0
stp4544
Rp4545
sg18
I-2553330628009308297
sbtp4546
Rp4547
sg147
g4
(F3.0
g5
(g6
g7
Ntp4548
Rp4549
(dp4550
g11
g5
(g12
g13
(dp4551
g58
F1.0
stp4552
Rp4553
sg18
I-8637397557623547456
sbtp4554
Rp4555
sg156
g4
(g157
(g89
S'\xb7\x0b\xcdu\x1ai\xd7\xbf'
p4556
tp4557
Rp4558
g162
tp4559
Rp4560
sbag5
(g74
g7
Ntp4561
Rp4562
(dp4563
g78
g4
(g79
(g80
(I0
tp4564
g82
tp4565
Rp4566
(I1
(I1
tp4567
g89
I00
S's\xc9\xdb\x8b\x14<\xc8>'
p4568
tp4569
bg95
tp4570
Rp4571
sg103
g4
(F240.0
g5
(g6
g7
Ntp4572
Rp4573
(dp4574
g11
g5
(g12
g13
(dp4575
g58
F1.0
stp4576
Rp4577
sg18
I-8637397557623547456
sbtp4578
Rp4579
sg112
I74
sg113
g4
(F5.0
g5
(g6
g7
Ntp4580
Rp4581
(dp4582
g11
g5
(g12
g13
(dp4583
g58
F1.0
stp4584
Rp4585
sg18
I-8637397557623547456
sbtp4586
Rp4587
sg122
g4
(F4.5
g5
(g6
g7
Ntp4588
Rp4589
(dp4590
g11
g5
(g12
g13
(dp4591
g127
F1.0
stp4592
Rp4593
sg18
I-4606935264605141194
sbtp4594
Rp4595
sg132
g4
(g79
(g80
(I0
tp4596
g82
tp4597
Rp4598
(I1
(tg89
I00
S'%\x06\x81\x95C\x8b\xe4?'
p4599
tp4600
bg5
(g6
g7
Ntp4601
Rp4602
(dp4603
g11
g5
(g12
g13
(dp4604
g142
F-1.0
sg98
F1.0
stp4605
Rp4606
sg18
I-2553330628009308297
sbtp4607
Rp4608
sg147
g4
(F3.0
g5
(g6
g7
Ntp4609
Rp4610
(dp4611
g11
g5
(g12
g13
(dp4612
g58
F1.0
stp4613
Rp4614
sg18
I-8637397557623547456
sbtp4615
Rp4616
sg156
g4
(g157
(g89
S'M-[\xeb\x8b\x84\xd2\xbf'
p4617
tp4618
Rp4619
g162
tp4620
Rp4621
sbag5
(g74
g7
Ntp4622
Rp4623
(dp4624
g78
g4
(g79
(g80
(I0
tp4625
g82
tp4626
Rp4627
(I1
(I1
tp4628
g89
I00
S's\xc9\xdb\x8b\x14<\xc8>'
p4629
tp4630
bg95
tp4631
Rp4632
sg103
g4
(F240.0
g5
(g6
g7
Ntp4633
Rp4634
(dp4635
g11
g5
(g12
g13
(dp4636
g58
F1.0
stp4637
Rp4638
sg18
I-8637397557623547456
sbtp4639
Rp4640
sg112
I75
sg113
g4
(F5.0
g5
(g6
g7
Ntp4641
Rp4642
(dp4643
g11
g5
(g12
g13
(dp4644
g58
F1.0
stp4645
Rp4646
sg18
I-8637397557623547456
sbtp4647
Rp4648
sg122
g4
(F4.5
g5
(g6
g7
Ntp4649
Rp4650
(dp4651
g11
g5
(g12
g13
(dp4652
g127
F1.0
stp4653
Rp4654
sg18
I-4606935264605141194
sbtp4655
Rp4656
sg132
g4
(g79
(g80
(I0
tp4657
g82
tp4658
Rp4659
(I1
(tg89
I00
S'%\x06\x81\x95C\x8b\xe4?'
p4660
tp4661
bg5
(g6
g7
Ntp4662
Rp4663
(dp4664
g11
g5
(g12
g13
(dp4665
g142
F-1.0
sg98
F1.0
stp4666
Rp4667
sg18
I-2553330628009308297
sbtp4668
Rp4669
sg147
g4
(F3.0
g5
(g6
g7
Ntp4670
Rp4671
(dp4672
g11
g5
(g12
g13
(dp4673
g58
F1.0
stp4674
Rp4675
sg18
I-8637397557623547456
sbtp4676
Rp4677
sg156
g4
(g157
(g89
S'\xf5-s\xba,&\xc6\xbf'
p4678
tp4679
Rp4680
g162
tp4681
Rp4682
sbag5
(g74
g7
Ntp4683
Rp4684
(dp4685
g78
g4
(g79
(g80
(I0
tp4686
g82
tp4687
Rp4688
(I1
(I1
tp4689
g89
I00
S's\xc9\xdb\x8b\x14<\xc8>'
p4690
tp4691
bg95
tp4692
Rp4693
sg103
g4
(F240.0
g5
(g6
g7
Ntp4694
Rp4695
(dp4696
g11
g5
(g12
g13
(dp4697
g58
F1.0
stp4698
Rp4699
sg18
I-8637397557623547456
sbtp4700
Rp4701
sg112
I76
sg113
g4
(F5.0
g5
(g6
g7
Ntp4702
Rp4703
(dp4704
g11
g5
(g12
g13
(dp4705
g58
F1.0
stp4706
Rp4707
sg18
I-8637397557623547456
sbtp4708
Rp4709
sg122
g4
(F4.5
g5
(g6
g7
Ntp4710
Rp4711
(dp4712
g11
g5
(g12
g13
(dp4713
g127
F1.0
stp4714
Rp4715
sg18
I-4606935264605141194
sbtp4716
Rp4717
sg132
g4
(g79
(g80
(I0
tp4718
g82
tp4719
Rp4720
(I1
(tg89
I00
S'%\x06\x81\x95C\x8b\xe4?'
p4721
tp4722
bg5
(g6
g7
Ntp4723
Rp4724
(dp4725
g11
g5
(g12
g13
(dp4726
g142
F-1.0
sg98
F1.0
stp4727
Rp4728
sg18
I-2553330628009308297
sbtp4729
Rp4730
sg147
g4
(F3.0
g5
(g6
g7
Ntp4731
Rp4732
(dp4733
g11
g5
(g12
g13
(dp4734
g58
F1.0
stp4735
Rp4736
sg18
I-8637397557623547456
sbtp4737
Rp4738
sg156
g4
(g157
(g89
S'\xb8;k\xb7]h\xc6\xbf'
p4739
tp4740
Rp4741
g162
tp4742
Rp4743
sbag5
(g74
g7
Ntp4744
Rp4745
(dp4746
g78
g4
(g79
(g80
(I0
tp4747
g82
tp4748
Rp4749
(I1
(I1
tp4750
g89
I00
S's\xc9\xdb\x8b\x14<\xc8>'
p4751
tp4752
bg95
tp4753
Rp4754
sg103
g4
(F240.0
g5
(g6
g7
Ntp4755
Rp4756
(dp4757
g11
g5
(g12
g13
(dp4758
g58
F1.0
stp4759
Rp4760
sg18
I-8637397557623547456
sbtp4761
Rp4762
sg112
I77
sg113
g4
(F5.0
g5
(g6
g7
Ntp4763
Rp4764
(dp4765
g11
g5
(g12
g13
(dp4766
g58
F1.0
stp4767
Rp4768
sg18
I-8637397557623547456
sbtp4769
Rp4770
sg122
g4
(F4.5
g5
(g6
g7
Ntp4771
Rp4772
(dp4773
g11
g5
(g12
g13
(dp4774
g127
F1.0
stp4775
Rp4776
sg18
I-4606935264605141194
sbtp4777
Rp4778
sg132
g4
(g79
(g80
(I0
tp4779
g82
tp4780
Rp4781
(I1
(tg89
I00
S'%\x06\x81\x95C\x8b\xe4?'
p4782
tp4783
bg5
(g6
g7
Ntp4784
Rp4785
(dp4786
g11
g5
(g12
g13
(dp4787
g142
F-1.0
sg98
F1.0
stp4788
Rp4789
sg18
I-2553330628009308297
sbtp4790
Rp4791
sg147
g4
(F3.0
g5
(g6
g7
Ntp4792
Rp4793
(dp4794
g11
g5
(g12
g13
(dp4795
g58
F1.0
stp4796
Rp4797
sg18
I-8637397557623547456
sbtp4798
Rp4799
sg156
g4
(g157
(g89
S'\x91\xed|?5^\xd0\xbf'
p4800
tp4801
Rp4802
g162
tp4803
Rp4804
sbag5
(g74
g7
Ntp4805
Rp4806
(dp4807
g78
g4
(g79
(g80
(I0
tp4808
g82
tp4809
Rp4810
(I1
(I1
tp4811
g89
I00
S's\xc9\xdb\x8b\x14<\xc8>'
p4812
tp4813
bg95
tp4814
Rp4815
sg103
g4
(F240.0
g5
(g6
g7
Ntp4816
Rp4817
(dp4818
g11
g5
(g12
g13
(dp4819
g58
F1.0
stp4820
Rp4821
sg18
I-8637397557623547456
sbtp4822
Rp4823
sg112
I78
sg113
g4
(F5.0
g5
(g6
g7
Ntp4824
Rp4825
(dp4826
g11
g5
(g12
g13
(dp4827
g58
F1.0
stp4828
Rp4829
sg18
I-8637397557623547456
sbtp4830
Rp4831
sg122
g4
(F4.5
g5
(g6
g7
Ntp4832
Rp4833
(dp4834
g11
g5
(g12
g13
(dp4835
g127
F1.0
stp4836
Rp4837
sg18
I-4606935264605141194
sbtp4838
Rp4839
sg132
g4
(g79
(g80
(I0
tp4840
g82
tp4841
Rp4842
(I1
(tg89
I00
S'%\x06\x81\x95C\x8b\xe4?'
p4843
tp4844
bg5
(g6
g7
Ntp4845
Rp4846
(dp4847
g11
g5
(g12
g13
(dp4848
g142
F-1.0
sg98
F1.0
stp4849
Rp4850
sg18
I-2553330628009308297
sbtp4851
Rp4852
sg147
g4
(F3.0
g5
(g6
g7
Ntp4853
Rp4854
(dp4855
g11
g5
(g12
g13
(dp4856
g58
F1.0
stp4857
Rp4858
sg18
I-8637397557623547456
sbtp4859
Rp4860
sg156
g4
(g157
(g89
S'B\xecL\xa1\xf3\x1a\xdd\xbf'
p4861
tp4862
Rp4863
g162
tp4864
Rp4865
sbag5
(g74
g7
Ntp4866
Rp4867
(dp4868
g78
g4
(g79
(g80
(I0
tp4869
g82
tp4870
Rp4871
(I1
(I1
tp4872
g89
I00
S's\xc9\xdb\x8b\x14<\xc8>'
p4873
tp4874
bg95
tp4875
Rp4876
sg103
g4
(F240.0
g5
(g6
g7
Ntp4877
Rp4878
(dp4879
g11
g5
(g12
g13
(dp4880
g58
F1.0
stp4881
Rp4882
sg18
I-8637397557623547456
sbtp4883
Rp4884
sg112
I79
sg113
g4
(F5.0
g5
(g6
g7
Ntp4885
Rp4886
(dp4887
g11
g5
(g12
g13
(dp4888
g58
F1.0
stp4889
Rp4890
sg18
I-8637397557623547456
sbtp4891
Rp4892
sg122
g4
(F4.5
g5
(g6
g7
Ntp4893
Rp4894
(dp4895
g11
g5
(g12
g13
(dp4896
g127
F1.0
stp4897
Rp4898
sg18
I-4606935264605141194
sbtp4899
Rp4900
sg132
g4
(g79
(g80
(I0
tp4901
g82
tp4902
Rp4903
(I1
(tg89
I00
S'%\x06\x81\x95C\x8b\xe4?'
p4904
tp4905
bg5
(g6
g7
Ntp4906
Rp4907
(dp4908
g11
g5
(g12
g13
(dp4909
g142
F-1.0
sg98
F1.0
stp4910
Rp4911
sg18
I-2553330628009308297
sbtp4912
Rp4913
sg147
g4
(F3.0
g5
(g6
g7
Ntp4914
Rp4915
(dp4916
g11
g5
(g12
g13
(dp4917
g58
F1.0
stp4918
Rp4919
sg18
I-8637397557623547456
sbtp4920
Rp4921
sg156
g4
(g157
(g89
S'g\n\x9d\xd7\xd8%\xe1\xbf'
p4922
tp4923
Rp4924
g162
tp4925
Rp4926
sbag5
(g74
g7
Ntp4927
Rp4928
(dp4929
g78
g4
(g79
(g80
(I0
tp4930
g82
tp4931
Rp4932
(I1
(I1
tp4933
g89
I00
S's\xc9\xdb\x8b\x14<\xc8>'
p4934
tp4935
bg95
tp4936
Rp4937
sg103
g4
(F240.0
g5
(g6
g7
Ntp4938
Rp4939
(dp4940
g11
g5
(g12
g13
(dp4941
g58
F1.0
stp4942
Rp4943
sg18
I-8637397557623547456
sbtp4944
Rp4945
sg112
I80
sg113
g4
(F5.0
g5
(g6
g7
Ntp4946
Rp4947
(dp4948
g11
g5
(g12
g13
(dp4949
g58
F1.0
stp4950
Rp4951
sg18
I-8637397557623547456
sbtp4952
Rp4953
sg122
g4
(F4.5
g5
(g6
g7
Ntp4954
Rp4955
(dp4956
g11
g5
(g12
g13
(dp4957
g127
F1.0
stp4958
Rp4959
sg18
I-4606935264605141194
sbtp4960
Rp4961
sg132
g4
(g79
(g80
(I0
tp4962
g82
tp4963
Rp4964
(I1
(tg89
I00
S'%\x06\x81\x95C\x8b\xe4?'
p4965
tp4966
bg5
(g6
g7
Ntp4967
Rp4968
(dp4969
g11
g5
(g12
g13
(dp4970
g142
F-1.0
sg98
F1.0
stp4971
Rp4972
sg18
I-2553330628009308297
sbtp4973
Rp4974
sg147
g4
(F3.0
g5
(g6
g7
Ntp4975
Rp4976
(dp4977
g11
g5
(g12
g13
(dp4978
g58
F1.0
stp4979
Rp4980
sg18
I-8637397557623547456
sbtp4981
Rp4982
sg156
g4
(g157
(g89
S"'\xa0\x89\xb0\xe1\xe9\xdf\xbf"
p4983
tp4984
Rp4985
g162
tp4986
Rp4987
sbag5
(g74
g7
Ntp4988
Rp4989
(dp4990
g78
g4
(g79
(g80
(I0
tp4991
g82
tp4992
Rp4993
(I1
(I1
tp4994
g89
I00
S's\xc9\xdb\x8b\x14<\xc8>'
p4995
tp4996
bg95
tp4997
Rp4998
sg103
g4
(F240.0
g5
(g6
g7
Ntp4999
Rp5000
(dp5001
g11
g5
(g12
g13
(dp5002
g58
F1.0
stp5003
Rp5004
sg18
I-8637397557623547456
sbtp5005
Rp5006
sg112
I81
sg113
g4
(F5.0
g5
(g6
g7
Ntp5007
Rp5008
(dp5009
g11
g5
(g12
g13
(dp5010
g58
F1.0
stp5011
Rp5012
sg18
I-8637397557623547456
sbtp5013
Rp5014
sg122
g4
(F4.5
g5
(g6
g7
Ntp5015
Rp5016
(dp5017
g11
g5
(g12
g13
(dp5018
g127
F1.0
stp5019
Rp5020
sg18
I-4606935264605141194
sbtp5021
Rp5022
sg132
g4
(g79
(g80
(I0
tp5023
g82
tp5024
Rp5025
(I1
(tg89
I00
S'%\x06\x81\x95C\x8b\xe4?'
p5026
tp5027
bg5
(g6
g7
Ntp5028
Rp5029
(dp5030
g11
g5
(g12
g13
(dp5031
g142
F-1.0
sg98
F1.0
stp5032
Rp5033
sg18
I-2553330628009308297
sbtp5034
Rp5035
sg147
g4
(F3.0
g5
(g6
g7
Ntp5036
Rp5037
(dp5038
g11
g5
(g12
g13
(dp5039
g58
F1.0
stp5040
Rp5041
sg18
I-8637397557623547456
sbtp5042
Rp5043
sg156
g4
(g157
(g89
S'\xc3*\xde\xc8<\xf2\xd5\xbf'
p5044
tp5045
Rp5046
g162
tp5047
Rp5048
sbag5
(g74
g7
Ntp5049
Rp5050
(dp5051
g78
g4
(g79
(g80
(I0
tp5052
g82
tp5053
Rp5054
(I1
(I1
tp5055
g89
I00
S's\xc9\xdb\x8b\x14<\xc8>'
p5056
tp5057
bg95
tp5058
Rp5059
sg103
g4
(F240.0
g5
(g6
g7
Ntp5060
Rp5061
(dp5062
g11
g5
(g12
g13
(dp5063
g58
F1.0
stp5064
Rp5065
sg18
I-8637397557623547456
sbtp5066
Rp5067
sg112
I82
sg113
g4
(F5.0
g5
(g6
g7
Ntp5068
Rp5069
(dp5070
g11
g5
(g12
g13
(dp5071
g58
F1.0
stp5072
Rp5073
sg18
I-8637397557623547456
sbtp5074
Rp5075
sg122
g4
(F4.5
g5
(g6
g7
Ntp5076
Rp5077
(dp5078
g11
g5
(g12
g13
(dp5079
g127
F1.0
stp5080
Rp5081
sg18
I-4606935264605141194
sbtp5082
Rp5083
sg132
g4
(g79
(g80
(I0
tp5084
g82
tp5085
Rp5086
(I1
(tg89
I00
S'%\x06\x81\x95C\x8b\xe4?'
p5087
tp5088
bg5
(g6
g7
Ntp5089
Rp5090
(dp5091
g11
g5
(g12
g13
(dp5092
g142
F-1.0
sg98
F1.0
stp5093
Rp5094
sg18
I-2553330628009308297
sbtp5095
Rp5096
sg147
g4
(F3.0
g5
(g6
g7
Ntp5097
Rp5098
(dp5099
g11
g5
(g12
g13
(dp5100
g58
F1.0
stp5101
Rp5102
sg18
I-8637397557623547456
sbtp5103
Rp5104
sg156
g4
(g157
(g89
S'\x0b\xefr\x11\xdf\x89\xd3\xbf'
p5105
tp5106
Rp5107
g162
tp5108
Rp5109
sbag5
(g74
g7
Ntp5110
Rp5111
(dp5112
g78
g4
(g79
(g80
(I0
tp5113
g82
tp5114
Rp5115
(I1
(I1
tp5116
g89
I00
S's\xc9\xdb\x8b\x14<\xc8>'
p5117
tp5118
bg95
tp5119
Rp5120
sg103
g4
(F240.0
g5
(g6
g7
Ntp5121
Rp5122
(dp5123
g11
g5
(g12
g13
(dp5124
g58
F1.0
stp5125
Rp5126
sg18
I-8637397557623547456
sbtp5127
Rp5128
sg112
I83
sg113
g4
(F5.0
g5
(g6
g7
Ntp5129
Rp5130
(dp5131
g11
g5
(g12
g13
(dp5132
g58
F1.0
stp5133
Rp5134
sg18
I-8637397557623547456
sbtp5135
Rp5136
sg122
g4
(F4.5
g5
(g6
g7
Ntp5137
Rp5138
(dp5139
g11
g5
(g12
g13
(dp5140
g127
F1.0
stp5141
Rp5142
sg18
I-4606935264605141194
sbtp5143
Rp5144
sg132
g4
(g79
(g80
(I0
tp5145
g82
tp5146
Rp5147
(I1
(tg89
I00
S'%\x06\x81\x95C\x8b\xe4?'
p5148
tp5149
bg5
(g6
g7
Ntp5150
Rp5151
(dp5152
g11
g5
(g12
g13
(dp5153
g142
F-1.0
sg98
F1.0
stp5154
Rp5155
sg18
I-2553330628009308297
sbtp5156
Rp5157
sg147
g4
(F3.0
g5
(g6
g7
Ntp5158
Rp5159
(dp5160
g11
g5
(g12
g13
(dp5161
g58
F1.0
stp5162
Rp5163
sg18
I-8637397557623547456
sbtp5164
Rp5165
sg156
g4
(g157
(g89
S'\xf4\x84%\x1eP6\xcd\xbf'
p5166
tp5167
Rp5168
g162
tp5169
Rp5170
sbag5
(g74
g7
Ntp5171
Rp5172
(dp5173
g78
g4
(g79
(g80
(I0
tp5174
g82
tp5175
Rp5176
(I1
(I1
tp5177
g89
I00
S's\xc9\xdb\x8b\x14<\xc8>'
p5178
tp5179
bg95
tp5180
Rp5181
sg103
g4
(F240.0
g5
(g6
g7
Ntp5182
Rp5183
(dp5184
g11
g5
(g12
g13
(dp5185
g58
F1.0
stp5186
Rp5187
sg18
I-8637397557623547456
sbtp5188
Rp5189
sg112
I84
sg113
g4
(F5.0
g5
(g6
g7
Ntp5190
Rp5191
(dp5192
g11
g5
(g12
g13
(dp5193
g58
F1.0
stp5194
Rp5195
sg18
I-8637397557623547456
sbtp5196
Rp5197
sg122
g4
(F4.5
g5
(g6
g7
Ntp5198
Rp5199
(dp5200
g11
g5
(g12
g13
(dp5201
g127
F1.0
stp5202
Rp5203
sg18
I-4606935264605141194
sbtp5204
Rp5205
sg132
g4
(g79
(g80
(I0
tp5206
g82
tp5207
Rp5208
(I1
(tg89
I00
S'%\x06\x81\x95C\x8b\xe4?'
p5209
tp5210
bg5
(g6
g7
Ntp5211
Rp5212
(dp5213
g11
g5
(g12
g13
(dp5214
g142
F-1.0
sg98
F1.0
stp5215
Rp5216
sg18
I-2553330628009308297
sbtp5217
Rp5218
sg147
g4
(F3.0
g5
(g6
g7
Ntp5219
Rp5220
(dp5221
g11
g5
(g12
g13
(dp5222
g58
F1.0
stp5223
Rp5224
sg18
I-8637397557623547456
sbtp5225
Rp5226
sg156
g4
(g157
(g89
S'\xb8\x92\x1d\x1b\x81x\xcd\xbf'
p5227
tp5228
Rp5229
g162
tp5230
Rp5231
sbag5
(g74
g7
Ntp5232
Rp5233
(dp5234
g78
g4
(g79
(g80
(I0
tp5235
g82
tp5236
Rp5237
(I1
(I1
tp5238
g89
I00
S's\xc9\xdb\x8b\x14<\xc8>'
p5239
tp5240
bg95
tp5241
Rp5242
sg103
g4
(F240.0
g5
(g6
g7
Ntp5243
Rp5244
(dp5245
g11
g5
(g12
g13
(dp5246
g58
F1.0
stp5247
Rp5248
sg18
I-8637397557623547456
sbtp5249
Rp5250
sg112
I85
sg113
g4
(F5.0
g5
(g6
g7
Ntp5251
Rp5252
(dp5253
g11
g5
(g12
g13
(dp5254
g58
F1.0
stp5255
Rp5256
sg18
I-8637397557623547456
sbtp5257
Rp5258
sg122
g4
(F4.5
g5
(g6
g7
Ntp5259
Rp5260
(dp5261
g11
g5
(g12
g13
(dp5262
g127
F1.0
stp5263
Rp5264
sg18
I-4606935264605141194
sbtp5265
Rp5266
sg132
g4
(g79
(g80
(I0
tp5267
g82
tp5268
Rp5269
(I1
(tg89
I00
S'%\x06\x81\x95C\x8b\xe4?'
p5270
tp5271
bg5
(g6
g7
Ntp5272
Rp5273
(dp5274
g11
g5
(g12
g13
(dp5275
g142
F-1.0
sg98
F1.0
stp5276
Rp5277
sg18
I-2553330628009308297
sbtp5278
Rp5279
sg147
g4
(F3.0
g5
(g6
g7
Ntp5280
Rp5281
(dp5282
g11
g5
(g12
g13
(dp5283
g58
F1.0
stp5284
Rp5285
sg18
I-8637397557623547456
sbtp5286
Rp5287
sg156
g4
(g157
(g89
S'O\xaf\x94e\x88c\xd1\xbf'
p5288
tp5289
Rp5290
g162
tp5291
Rp5292
sbag5
(g74
g7
Ntp5293
Rp5294
(dp5295
g78
g4
(g79
(g80
(I0
tp5296
g82
tp5297
Rp5298
(I1
(I1
tp5299
g89
I00
S's\xc9\xdb\x8b\x14<\xc8>'
p5300
tp5301
bg95
tp5302
Rp5303
sg103
g4
(F240.0
g5
(g6
g7
Ntp5304
Rp5305
(dp5306
g11
g5
(g12
g13
(dp5307
g58
F1.0
stp5308
Rp5309
sg18
I-8637397557623547456
sbtp5310
Rp5311
sg112
I86
sg113
g4
(F5.0
g5
(g6
g7
Ntp5312
Rp5313
(dp5314
g11
g5
(g12
g13
(dp5315
g58
F1.0
stp5316
Rp5317
sg18
I-8637397557623547456
sbtp5318
Rp5319
sg122
g4
(F4.5
g5
(g6
g7
Ntp5320
Rp5321
(dp5322
g11
g5
(g12
g13
(dp5323
g127
F1.0
stp5324
Rp5325
sg18
I-4606935264605141194
sbtp5326
Rp5327
sg132
g4
(g79
(g80
(I0
tp5328
g82
tp5329
Rp5330
(I1
(tg89
I00
S'%\x06\x81\x95C\x8b\xe4?'
p5331
tp5332
bg5
(g6
g7
Ntp5333
Rp5334
(dp5335
g11
g5
(g12
g13
(dp5336
g142
F-1.0
sg98
F1.0
stp5337
Rp5338
sg18
I-2553330628009308297
sbtp5339
Rp5340
sg147
g4
(F3.0
g5
(g6
g7
Ntp5341
Rp5342
(dp5343
g11
g5
(g12
g13
(dp5344
g58
F1.0
stp5345
Rp5346
sg18
I-8637397557623547456
sbtp5347
Rp5348
sg156
g4
(g157
(g89
S'Tt$\x97\xff\x90\xd6\xbf'
p5349
tp5350
Rp5351
g162
tp5352
Rp5353
sbag5
(g74
g7
Ntp5354
Rp5355
(dp5356
g78
g4
(g79
(g80
(I0
tp5357
g82
tp5358
Rp5359
(I1
(I1
tp5360
g89
I00
S's\xc9\xdb\x8b\x14<\xc8>'
p5361
tp5362
bg95
tp5363
Rp5364
sg103
g4
(F240.0
g5
(g6
g7
Ntp5365
Rp5366
(dp5367
g11
g5
(g12
g13
(dp5368
g58
F1.0
stp5369
Rp5370
sg18
I-8637397557623547456
sbtp5371
Rp5372
sg112
I87
sg113
g4
(F5.0
g5
(g6
g7
Ntp5373
Rp5374
(dp5375
g11
g5
(g12
g13
(dp5376
g58
F1.0
stp5377
Rp5378
sg18
I-8637397557623547456
sbtp5379
Rp5380
sg122
g4
(F4.5
g5
(g6
g7
Ntp5381
Rp5382
(dp5383
g11
g5
(g12
g13
(dp5384
g127
F1.0
stp5385
Rp5386
sg18
I-4606935264605141194
sbtp5387
Rp5388
sg132
g4
(g79
(g80
(I0
tp5389
g82
tp5390
Rp5391
(I1
(tg89
I00
S'%\x06\x81\x95C\x8b\xe4?'
p5392
tp5393
bg5
(g6
g7
Ntp5394
Rp5395
(dp5396
g11
g5
(g12
g13
(dp5397
g142
F-1.0
sg98
F1.0
stp5398
Rp5399
sg18
I-2553330628009308297
sbtp5400
Rp5401
sg147
g4
(F3.0
g5
(g6
g7
Ntp5402
Rp5403
(dp5404
g11
g5
(g12
g13
(dp5405
g58
F1.0
stp5406
Rp5407
sg18
I-8637397557623547456
sbtp5408
Rp5409
sg156
g4
(g157
(g89
S'5{\xa0\x15\x18\xb2\xd6\xbf'
p5410
tp5411
Rp5412
g162
tp5413
Rp5414
sbag5
(g74
g7
Ntp5415
Rp5416
(dp5417
g78
g4
(g79
(g80
(I0
tp5418
g82
tp5419
Rp5420
(I1
(I1
tp5421
g89
I00
S's\xc9\xdb\x8b\x14<\xc8>'
p5422
tp5423
bg95
tp5424
Rp5425
sg103
g4
(F240.0
g5
(g6
g7
Ntp5426
Rp5427
(dp5428
g11
g5
(g12
g13
(dp5429
g58
F1.0
stp5430
Rp5431
sg18
I-8637397557623547456
sbtp5432
Rp5433
sg112
I88
sg113
g4
(F5.0
g5
(g6
g7
Ntp5434
Rp5435
(dp5436
g11
g5
(g12
g13
(dp5437
g58
F1.0
stp5438
Rp5439
sg18
I-8637397557623547456
sbtp5440
Rp5441
sg122
g4
(F4.5
g5
(g6
g7
Ntp5442
Rp5443
(dp5444
g11
g5
(g12
g13
(dp5445
g127
F1.0
stp5446
Rp5447
sg18
I-4606935264605141194
sbtp5448
Rp5449
sg132
g4
(g79
(g80
(I0
tp5450
g82
tp5451
Rp5452
(I1
(tg89
I00
S'%\x06\x81\x95C\x8b\xe4?'
p5453
tp5454
bg5
(g6
g7
Ntp5455
Rp5456
(dp5457
g11
g5
(g12
g13
(dp5458
g142
F-1.0
sg98
F1.0
stp5459
Rp5460
sg18
I-2553330628009308297
sbtp5461
Rp5462
sg147
g4
(F3.0
g5
(g6
g7
Ntp5463
Rp5464
(dp5465
g11
g5
(g12
g13
(dp5466
g58
F1.0
stp5467
Rp5468
sg18
I-8637397557623547456
sbtp5469
Rp5470
sg156
g4
(g157
(g89
S'\xa3;\x88\x9d)t\xce\xbf'
p5471
tp5472
Rp5473
g162
tp5474
Rp5475
sbag5
(g74
g7
Ntp5476
Rp5477
(dp5478
g78
g4
(g79
(g80
(I0
tp5479
g82
tp5480
Rp5481
(I1
(I1
tp5482
g89
I00
S's\xc9\xdb\x8b\x14<\xc8>'
p5483
tp5484
bg95
tp5485
Rp5486
sg103
g4
(F240.0
g5
(g6
g7
Ntp5487
Rp5488
(dp5489
g11
g5
(g12
g13
(dp5490
g58
F1.0
stp5491
Rp5492
sg18
I-8637397557623547456
sbtp5493
Rp5494
sg112
I89
sg113
g4
(F5.0
g5
(g6
g7
Ntp5495
Rp5496
(dp5497
g11
g5
(g12
g13
(dp5498
g58
F1.0
stp5499
Rp5500
sg18
I-8637397557623547456
sbtp5501
Rp5502
sg122
g4
(F4.5
g5
(g6
g7
Ntp5503
Rp5504
(dp5505
g11
g5
(g12
g13
(dp5506
g127
F1.0
stp5507
Rp5508
sg18
I-4606935264605141194
sbtp5509
Rp5510
sg132
g4
(g79
(g80
(I0
tp5511
g82
tp5512
Rp5513
(I1
(tg89
I00
S'%\x06\x81\x95C\x8b\xe4?'
p5514
tp5515
bg5
(g6
g7
Ntp5516
Rp5517
(dp5518
g11
g5
(g12
g13
(dp5519
g142
F-1.0
sg98
F1.0
stp5520
Rp5521
sg18
I-2553330628009308297
sbtp5522
Rp5523
sg147
g4
(F3.0
g5
(g6
g7
Ntp5524
Rp5525
(dp5526
g11
g5
(g12
g13
(dp5527
g58
F1.0
stp5528
Rp5529
sg18
I-8637397557623547456
sbtp5530
Rp5531
sg156
g4
(g157
(g89
S'\x95\xd9 \x93\x8c\x9c\xc9\xbf'
p5532
tp5533
Rp5534
g162
tp5535
Rp5536
sbag5
(g74
g7
Ntp5537
Rp5538
(dp5539
g78
g4
(g79
(g80
(I0
tp5540
g82
tp5541
Rp5542
(I1
(I1
tp5543
g89
I00
S's\xc9\xdb\x8b\x14<\xc8>'
p5544
tp5545
bg95
tp5546
Rp5547
sg103
g4
(F240.0
g5
(g6
g7
Ntp5548
Rp5549
(dp5550
g11
g5
(g12
g13
(dp5551
g58
F1.0
stp5552
Rp5553
sg18
I-8637397557623547456
sbtp5554
Rp5555
sg112
I90
sg113
g4
(F5.0
g5
(g6
g7
Ntp5556
Rp5557
(dp5558
g11
g5
(g12
g13
(dp5559
g58
F1.0
stp5560
Rp5561
sg18
I-8637397557623547456
sbtp5562
Rp5563
sg122
g4
(F4.5
g5
(g6
g7
Ntp5564
Rp5565
(dp5566
g11
g5
(g12
g13
(dp5567
g127
F1.0
stp5568
Rp5569
sg18
I-4606935264605141194
sbtp5570
Rp5571
sg132
g4
(g79
(g80
(I0
tp5572
g82
tp5573
Rp5574
(I1
(tg89
I00
S'%\x06\x81\x95C\x8b\xe4?'
p5575
tp5576
bg5
(g6
g7
Ntp5577
Rp5578
(dp5579
g11
g5
(g12
g13
(dp5580
g142
F-1.0
sg98
F1.0
stp5581
Rp5582
sg18
I-2553330628009308297
sbtp5583
Rp5584
sg147
g4
(F3.0
g5
(g6
g7
Ntp5585
Rp5586
(dp5587
g11
g5
(g12
g13
(dp5588
g58
F1.0
stp5589
Rp5590
sg18
I-8637397557623547456
sbtp5591
Rp5592
sg156
g4
(g157
(g89
S'6Y\xa3\x1e\xa2\xd1\xc9\xbf'
p5593
tp5594
Rp5595
g162
tp5596
Rp5597
sbag5
(g74
g7
Ntp5598
Rp5599
(dp5600
g78
g4
(g79
(g80
(I0
tp5601
g82
tp5602
Rp5603
(I1
(I1
tp5604
g89
I00
S's\xc9\xdb\x8b\x14<\xc8>'
p5605
tp5606
bg95
tp5607
Rp5608
sg103
g4
(F240.0
g5
(g6
g7
Ntp5609
Rp5610
(dp5611
g11
g5
(g12
g13
(dp5612
g58
F1.0
stp5613
Rp5614
sg18
I-8637397557623547456
sbtp5615
Rp5616
sg112
I91
sg113
g4
(F5.0
g5
(g6
g7
Ntp5617
Rp5618
(dp5619
g11
g5
(g12
g13
(dp5620
g58
F1.0
stp5621
Rp5622
sg18
I-8637397557623547456
sbtp5623
Rp5624
sg122
g4
(F4.5
g5
(g6
g7
Ntp5625
Rp5626
(dp5627
g11
g5
(g12
g13
(dp5628
g127
F1.0
stp5629
Rp5630
sg18
I-4606935264605141194
sbtp5631
Rp5632
sg132
g4
(g79
(g80
(I0
tp5633
g82
tp5634
Rp5635
(I1
(tg89
I00
S'%\x06\x81\x95C\x8b\xe4?'
p5636
tp5637
bg5
(g6
g7
Ntp5638
Rp5639
(dp5640
g11
g5
(g12
g13
(dp5641
g142
F-1.0
sg98
F1.0
stp5642
Rp5643
sg18
I-2553330628009308297
sbtp5644
Rp5645
sg147
g4
(F3.0
g5
(g6
g7
Ntp5646
Rp5647
(dp5648
g11
g5
(g12
g13
(dp5649
g58
F1.0
stp5650
Rp5651
sg18
I-8637397557623547456
sbtp5652
Rp5653
sg156
g4
(g157
(g89
S'\\\xac\xa8\xc14\x0c\xcf\xbf'
p5654
tp5655
Rp5656
g162
tp5657
Rp5658
sbag5
(g74
g7
Ntp5659
Rp5660
(dp5661
g78
g4
(g79
(g80
(I0
tp5662
g82
tp5663
Rp5664
(I1
(I1
tp5665
g89
I00
S's\xc9\xdb\x8b\x14<\xc8>'
p5666
tp5667
bg95
tp5668
Rp5669
sg103
g4
(F240.0
g5
(g6
g7
Ntp5670
Rp5671
(dp5672
g11
g5
(g12
g13
(dp5673
g58
F1.0
stp5674
Rp5675
sg18
I-8637397557623547456
sbtp5676
Rp5677
sg112
I92
sg113
g4
(F5.0
g5
(g6
g7
Ntp5678
Rp5679
(dp5680
g11
g5
(g12
g13
(dp5681
g58
F1.0
stp5682
Rp5683
sg18
I-8637397557623547456
sbtp5684
Rp5685
sg122
g4
(F4.5
g5
(g6
g7
Ntp5686
Rp5687
(dp5688
g11
g5
(g12
g13
(dp5689
g127
F1.0
stp5690
Rp5691
sg18
I-4606935264605141194
sbtp5692
Rp5693
sg132
g4
(g79
(g80
(I0
tp5694
g82
tp5695
Rp5696
(I1
(tg89
I00
S'%\x06\x81\x95C\x8b\xe4?'
p5697
tp5698
bg5
(g6
g7
Ntp5699
Rp5700
(dp5701
g11
g5
(g12
g13
(dp5702
g142
F-1.0
sg98
F1.0
stp5703
Rp5704
sg18
I-2553330628009308297
sbtp5705
Rp5706
sg147
g4
(F3.0
g5
(g6
g7
Ntp5707
Rp5708
(dp5709
g11
g5
(g12
g13
(dp5710
g58
F1.0
stp5711
Rp5712
sg18
I-8637397557623547456
sbtp5713
Rp5714
sg156
g4
(g157
(g89
S'_A\x9a\xb1h:\xcf\xbf'
p5715
tp5716
Rp5717
g162
tp5718
Rp5719
sbag5
(g74
g7
Ntp5720
Rp5721
(dp5722
g78
g4
(g79
(g80
(I0
tp5723
g82
tp5724
Rp5725
(I1
(I1
tp5726
g89
I00
S's\xc9\xdb\x8b\x14<\xc8>'
p5727
tp5728
bg95
tp5729
Rp5730
sg103
g4
(F240.0
g5
(g6
g7
Ntp5731
Rp5732
(dp5733
g11
g5
(g12
g13
(dp5734
g58
F1.0
stp5735
Rp5736
sg18
I-8637397557623547456
sbtp5737
Rp5738
sg112
I93
sg113
g4
(F5.0
g5
(g6
g7
Ntp5739
Rp5740
(dp5741
g11
g5
(g12
g13
(dp5742
g58
F1.0
stp5743
Rp5744
sg18
I-8637397557623547456
sbtp5745
Rp5746
sg122
g4
(F4.5
g5
(g6
g7
Ntp5747
Rp5748
(dp5749
g11
g5
(g12
g13
(dp5750
g127
F1.0
stp5751
Rp5752
sg18
I-4606935264605141194
sbtp5753
Rp5754
sg132
g4
(g79
(g80
(I0
tp5755
g82
tp5756
Rp5757
(I1
(tg89
I00
S'%\x06\x81\x95C\x8b\xe4?'
p5758
tp5759
bg5
(g6
g7
Ntp5760
Rp5761
(dp5762
g11
g5
(g12
g13
(dp5763
g142
F-1.0
sg98
F1.0
stp5764
Rp5765
sg18
I-2553330628009308297
sbtp5766
Rp5767
sg147
g4
(F3.0
g5
(g6
g7
Ntp5768
Rp5769
(dp5770
g11
g5
(g12
g13
(dp5771
g58
F1.0
stp5772
Rp5773
sg18
I-8637397557623547456
sbtp5774
Rp5775
sg156
g4
(g157
(g89
S'\x01\xc1\x1c=~o\xcf\xbf'
p5776
tp5777
Rp5778
g162
tp5779
Rp5780
sbag5
(g74
g7
Ntp5781
Rp5782
(dp5783
g78
g4
(g79
(g80
(I0
tp5784
g82
tp5785
Rp5786
(I1
(I1
tp5787
g89
I00
S's\xc9\xdb\x8b\x14<\xc8>'
p5788
tp5789
bg95
tp5790
Rp5791
sg103
g4
(F240.0
g5
(g6
g7
Ntp5792
Rp5793
(dp5794
g11
g5
(g12
g13
(dp5795
g58
F1.0
stp5796
Rp5797
sg18
I-8637397557623547456
sbtp5798
Rp5799
sg112
I94
sg113
g4
(F5.0
g5
(g6
g7
Ntp5800
Rp5801
(dp5802
g11
g5
(g12
g13
(dp5803
g58
F1.0
stp5804
Rp5805
sg18
I-8637397557623547456
sbtp5806
Rp5807
sg122
g4
(F4.5
g5
(g6
g7
Ntp5808
Rp5809
(dp5810
g11
g5
(g12
g13
(dp5811
g127
F1.0
stp5812
Rp5813
sg18
I-4606935264605141194
sbtp5814
Rp5815
sg132
g4
(g79
(g80
(I0
tp5816
g82
tp5817
Rp5818
(I1
(tg89
I00
S'%\x06\x81\x95C\x8b\xe4?'
p5819
tp5820
bg5
(g6
g7
Ntp5821
Rp5822
(dp5823
g11
g5
(g12
g13
(dp5824
g142
F-1.0
sg98
F1.0
stp5825
Rp5826
sg18
I-2553330628009308297
sbtp5827
Rp5828
sg147
g4
(F3.0
g5
(g6
g7
Ntp5829
Rp5830
(dp5831
g11
g5
(g12
g13
(dp5832
g58
F1.0
stp5833
Rp5834
sg18
I-8637397557623547456
sbtp5835
Rp5836
sg156
g4
(g157
(g89
S'\x15\x1d\xc9\xe5?\xa4\xcf\xbf'
p5837
tp5838
Rp5839
g162
tp5840
Rp5841
sbag5
(g74
g7
Ntp5842
Rp5843
(dp5844
g78
g4
(g79
(g80
(I0
tp5845
g82
tp5846
Rp5847
(I1
(I1
tp5848
g89
I00
S's\xc9\xdb\x8b\x14<\xc8>'
p5849
tp5850
bg95
tp5851
Rp5852
sg103
g4
(F240.0
g5
(g6
g7
Ntp5853
Rp5854
(dp5855
g11
g5
(g12
g13
(dp5856
g58
F1.0
stp5857
Rp5858
sg18
I-8637397557623547456
sbtp5859
Rp5860
sg112
I95
sg113
g4
(F5.0
g5
(g6
g7
Ntp5861
Rp5862
(dp5863
g11
g5
(g12
g13
(dp5864
g58
F1.0
stp5865
Rp5866
sg18
I-8637397557623547456
sbtp5867
Rp5868
sg122
g4
(F4.5
g5
(g6
g7
Ntp5869
Rp5870
(dp5871
g11
g5
(g12
g13
(dp5872
g127
F1.0
stp5873
Rp5874
sg18
I-4606935264605141194
sbtp5875
Rp5876
sg132
g4
(g79
(g80
(I0
tp5877
g82
tp5878
Rp5879
(I1
(tg89
I00
S'%\x06\x81\x95C\x8b\xe4?'
p5880
tp5881
bg5
(g6
g7
Ntp5882
Rp5883
(dp5884
g11
g5
(g12
g13
(dp5885
g142
F-1.0
sg98
F1.0
stp5886
Rp5887
sg18
I-2553330628009308297
sbtp5888
Rp5889
sg147
g4
(F3.0
g5
(g6
g7
Ntp5890
Rp5891
(dp5892
g11
g5
(g12
g13
(dp5893
g58
F1.0
stp5894
Rp5895
sg18
I-8637397557623547456
sbtp5896
Rp5897
sg156
g4
(g157
(g89
S'\xd7*\xc1\xe2p\xe6\xcf\xbf'
p5898
tp5899
Rp5900
g162
tp5901
Rp5902
sbag5
(g74
g7
Ntp5903
Rp5904
(dp5905
g78
g4
(g79
(g80
(I0
tp5906
g82
tp5907
Rp5908
(I1
(I1
tp5909
g89
I00
S's\xc9\xdb\x8b\x14<\xc8>'
p5910
tp5911
bg95
tp5912
Rp5913
sg103
g4
(F240.0
g5
(g6
g7
Ntp5914
Rp5915
(dp5916
g11
g5
(g12
g13
(dp5917
g58
F1.0
stp5918
Rp5919
sg18
I-8637397557623547456
sbtp5920
Rp5921
sg112
I96
sg113
g4
(F5.0
g5
(g6
g7
Ntp5922
Rp5923
(dp5924
g11
g5
(g12
g13
(dp5925
g58
F1.0
stp5926
Rp5927
sg18
I-8637397557623547456
sbtp5928
Rp5929
sg122
g4
(F4.5
g5
(g6
g7
Ntp5930
Rp5931
(dp5932
g11
g5
(g12
g13
(dp5933
g127
F1.0
stp5934
Rp5935
sg18
I-4606935264605141194
sbtp5936
Rp5937
sg132
g4
(g79
(g80
(I0
tp5938
g82
tp5939
Rp5940
(I1
(tg89
I00
S'%\x06\x81\x95C\x8b\xe4?'
p5941
tp5942
bg5
(g6
g7
Ntp5943
Rp5944
(dp5945
g11
g5
(g12
g13
(dp5946
g142
F-1.0
sg98
F1.0
stp5947
Rp5948
sg18
I-2553330628009308297
sbtp5949
Rp5950
sg147
g4
(F3.0
g5
(g6
g7
Ntp5951
Rp5952
(dp5953
g11
g5
(g12
g13
(dp5954
g58
F1.0
stp5955
Rp5956
sg18
I-8637397557623547456
sbtp5957
Rp5958
sg156
g4
(g157
(g89
S"W\xec/\xbb'\x0f\xcb\xbf"
p5959
tp5960
Rp5961
g162
tp5962
Rp5963
sbag5
(g74
g7
Ntp5964
Rp5965
(dp5966
g78
g4
(g79
(g80
(I0
tp5967
g82
tp5968
Rp5969
(I1
(I1
tp5970
g89
I00
S's\xc9\xdb\x8b\x14<\xc8>'
p5971
tp5972
bg95
tp5973
Rp5974
sg103
g4
(F240.0
g5
(g6
g7
Ntp5975
Rp5976
(dp5977
g11
g5
(g12
g13
(dp5978
g58
F1.0
stp5979
Rp5980
sg18
I-8637397557623547456
sbtp5981
Rp5982
sg112
I97
sg113
g4
(F5.0
g5
(g6
g7
Ntp5983
Rp5984
(dp5985
g11
g5
(g12
g13
(dp5986
g58
F1.0
stp5987
Rp5988
sg18
I-8637397557623547456
sbtp5989
Rp5990
sg122
g4
(F4.5
g5
(g6
g7
Ntp5991
Rp5992
(dp5993
g11
g5
(g12
g13
(dp5994
g127
F1.0
stp5995
Rp5996
sg18
I-4606935264605141194
sbtp5997
Rp5998
sg132
g4
(g79
(g80
(I0
tp5999
g82
tp6000
Rp6001
(I1
(tg89
I00
S'%\x06\x81\x95C\x8b\xe4?'
p6002
tp6003
bg5
(g6
g7
Ntp6004
Rp6005
(dp6006
g11
g5
(g12
g13
(dp6007
g142
F-1.0
sg98
F1.0
stp6008
Rp6009
sg18
I-2553330628009308297
sbtp6010
Rp6011
sg147
g4
(F3.0
g5
(g6
g7
Ntp6012
Rp6013
(dp6014
g11
g5
(g12
g13
(dp6015
g58
F1.0
stp6016
Rp6017
sg18
I-8637397557623547456
sbtp6018
Rp6019
sg156
g4
(g157
(g89
S'jH\xdcc\xe9C\xcb\xbf'
p6020
tp6021
Rp6022
g162
tp6023
Rp6024
sbag5
(g74
g7
Ntp6025
Rp6026
(dp6027
g78
g4
(g79
(g80
(I0
tp6028
g82
tp6029
Rp6030
(I1
(I1
tp6031
g89
I00
S's\xc9\xdb\x8b\x14<\xc8>'
p6032
tp6033
bg95
tp6034
Rp6035
sg103
g4
(F240.0
g5
(g6
g7
Ntp6036
Rp6037
(dp6038
g11
g5
(g12
g13
(dp6039
g58
F1.0
stp6040
Rp6041
sg18
I-8637397557623547456
sbtp6042
Rp6043
sg112
I98
sg113
g4
(F5.0
g5
(g6
g7
Ntp6044
Rp6045
(dp6046
g11
g5
(g12
g13
(dp6047
g58
F1.0
stp6048
Rp6049
sg18
I-8637397557623547456
sbtp6050
Rp6051
sg122
g4
(F4.5
g5
(g6
g7
Ntp6052
Rp6053
(dp6054
g11
g5
(g12
g13
(dp6055
g127
F1.0
stp6056
Rp6057
sg18
I-4606935264605141194
sbtp6058
Rp6059
sg132
g4
(g79
(g80
(I0
tp6060
g82
tp6061
Rp6062
(I1
(tg89
I00
S'%\x06\x81\x95C\x8b\xe4?'
p6063
tp6064
bg5
(g6
g7
Ntp6065
Rp6066
(dp6067
g11
g5
(g12
g13
(dp6068
g142
F-1.0
sg98
F1.0
stp6069
Rp6070
sg18
I-2553330628009308297
sbtp6071
Rp6072
sg147
g4
(F3.0
g5
(g6
g7
Ntp6073
Rp6074
(dp6075
g11
g5
(g12
g13
(dp6076
g58
F1.0
stp6077
Rp6078
sg18
I-8637397557623547456
sbtp6079
Rp6080
sg156
g4
(g157
(g89
S'\r\xc8^\xef\xfex\xcb\xbf'
p6081
tp6082
Rp6083
g162
tp6084
Rp6085
sbag5
(g74
g7
Ntp6086
Rp6087
(dp6088
g78
g4
(g79
(g80
(I0
tp6089
g82
tp6090
Rp6091
(I1
(I1
tp6092
g89
I00
S's\xc9\xdb\x8b\x14<\xc8>'
p6093
tp6094
bg95
tp6095
Rp6096
sg103
g4
(F240.0
g5
(g6
g7
Ntp6097
Rp6098
(dp6099
g11
g5
(g12
g13
(dp6100
g58
F1.0
stp6101
Rp6102
sg18
I-8637397557623547456
sbtp6103
Rp6104
sg112
I99
sg113
g4
(F5.0
g5
(g6
g7
Ntp6105
Rp6106
(dp6107
g11
g5
(g12
g13
(dp6108
g58
F1.0
stp6109
Rp6110
sg18
I-8637397557623547456
sbtp6111
Rp6112
sg122
g4
(F4.5
g5
(g6
g7
Ntp6113
Rp6114
(dp6115
g11
g5
(g12
g13
(dp6116
g127
F1.0
stp6117
Rp6118
sg18
I-4606935264605141194
sbtp6119
Rp6120
sg132
g4
(g79
(g80
(I0
tp6121
g82
tp6122
Rp6123
(I1
(tg89
I00
S'%\x06\x81\x95C\x8b\xe4?'
p6124
tp6125
bg5
(g6
g7
Ntp6126
Rp6127
(dp6128
g11
g5
(g12
g13
(dp6129
g142
F-1.0
sg98
F1.0
stp6130
Rp6131
sg18
I-2553330628009308297
sbtp6132
Rp6133
sg147
g4
(F3.0
g5
(g6
g7
Ntp6134
Rp6135
(dp6136
g11
g5
(g12
g13
(dp6137
g58
F1.0
stp6138
Rp6139
sg18
I-8637397557623547456
sbtp6140
Rp6141
sg156
g4
(g157
(g89
S'\x8b\x89\xcd\xc7\xb5\xa1\xc6\xbf'
p6142
tp6143
Rp6144
g162
tp6145
Rp6146
sbag5
(g74
g7
Ntp6147
Rp6148
(dp6149
g78
g4
(g79
(g80
(I0
tp6150
g82
tp6151
Rp6152
(I1
(I1
tp6153
g89
I00
S's\xc9\xdb\x8b\x14<\xc8>'
p6154
tp6155
bg95
tp6156
Rp6157
sg103
g4
(F240.0
g5
(g6
g7
Ntp6158
Rp6159
(dp6160
g11
g5
(g12
g13
(dp6161
g58
F1.0
stp6162
Rp6163
sg18
I-8637397557623547456
sbtp6164
Rp6165
sg112
I100
sg113
g4
(F5.0
g5
(g6
g7
Ntp6166
Rp6167
(dp6168
g11
g5
(g12
g13
(dp6169
g58
F1.0
stp6170
Rp6171
sg18
I-8637397557623547456
sbtp6172
Rp6173
sg122
g4
(F4.5
g5
(g6
g7
Ntp6174
Rp6175
(dp6176
g11
g5
(g12
g13
(dp6177
g127
F1.0
stp6178
Rp6179
sg18
I-4606935264605141194
sbtp6180
Rp6181
sg132
g4
(g79
(g80
(I0
tp6182
g82
tp6183
Rp6184
(I1
(tg89
I00
S'%\x06\x81\x95C\x8b\xe4?'
p6185
tp6186
bg5
(g6
g7
Ntp6187
Rp6188
(dp6189
g11
g5
(g12
g13
(dp6190
g142
F-1.0
sg98
F1.0
stp6191
Rp6192
sg18
I-2553330628009308297
sbtp6193
Rp6194
sg147
g4
(F3.0
g5
(g6
g7
Ntp6195
Rp6196
(dp6197
g11
g5
(g12
g13
(dp6198
g58
F1.0
stp6199
Rp6200
sg18
I-8637397557623547456
sbtp6201
Rp6202
sg156
g4
(g157
(g89
S'\x8f\x1e\xbf\xb7\xe9\xcf\xc6\xbf'
p6203
tp6204
Rp6205
g162
tp6206
Rp6207
sbag5
(g74
g7
Ntp6208
Rp6209
(dp6210
g78
g4
(g79
(g80
(I0
tp6211
g82
tp6212
Rp6213
(I1
(I1
tp6214
g89
I00
S's\xc9\xdb\x8b\x14<\xc8>'
p6215
tp6216
bg95
tp6217
Rp6218
sg103
g4
(F240.0
g5
(g6
g7
Ntp6219
Rp6220
(dp6221
g11
g5
(g12
g13
(dp6222
g58
F1.0
stp6223
Rp6224
sg18
I-8637397557623547456
sbtp6225
Rp6226
sg112
I101
sg113
g4
(F5.0
g5
(g6
g7
Ntp6227
Rp6228
(dp6229
g11
g5
(g12
g13
(dp6230
g58
F1.0
stp6231
Rp6232
sg18
I-8637397557623547456
sbtp6233
Rp6234
sg122
g4
(F4.5
g5
(g6
g7
Ntp6235
Rp6236
(dp6237
g11
g5
(g12
g13
(dp6238
g127
F1.0
stp6239
Rp6240
sg18
I-4606935264605141194
sbtp6241
Rp6242
sg132
g4
(g79
(g80
(I0
tp6243
g82
tp6244
Rp6245
(I1
(tg89
I00
S'%\x06\x81\x95C\x8b\xe4?'
p6246
tp6247
bg5
(g6
g7
Ntp6248
Rp6249
(dp6250
g11
g5
(g12
g13
(dp6251
g142
F-1.0
sg98
F1.0
stp6252
Rp6253
sg18
I-2553330628009308297
sbtp6254
Rp6255
sg147
g4
(F3.0
g5
(g6
g7
Ntp6256
Rp6257
(dp6258
g11
g5
(g12
g13
(dp6259
g58
F1.0
stp6260
Rp6261
sg18
I-8637397557623547456
sbtp6262
Rp6263
sg156
g4
(g157
(g89
S'\xb4q\xc4Z|\n\xcc\xbf'
p6264
tp6265
Rp6266
g162
tp6267
Rp6268
sbag5
(g74
g7
Ntp6269
Rp6270
(dp6271
g78
g4
(g79
(g80
(I0
tp6272
g82
tp6273
Rp6274
(I1
(I1
tp6275
g89
I00
S's\xc9\xdb\x8b\x14<\xc8>'
p6276
tp6277
bg95
tp6278
Rp6279
sg103
g4
(F240.0
g5
(g6
g7
Ntp6280
Rp6281
(dp6282
g11
g5
(g12
g13
(dp6283
g58
F1.0
stp6284
Rp6285
sg18
I-8637397557623547456
sbtp6286
Rp6287
sg112
I102
sg113
g4
(F5.0
g5
(g6
g7
Ntp6288
Rp6289
(dp6290
g11
g5
(g12
g13
(dp6291
g58
F1.0
stp6292
Rp6293
sg18
I-8637397557623547456
sbtp6294
Rp6295
sg122
g4
(F4.5
g5
(g6
g7
Ntp6296
Rp6297
(dp6298
g11
g5
(g12
g13
(dp6299
g127
F1.0
stp6300
Rp6301
sg18
I-4606935264605141194
sbtp6302
Rp6303
sg132
g4
(g79
(g80
(I0
tp6304
g82
tp6305
Rp6306
(I1
(tg89
I00
S'%\x06\x81\x95C\x8b\xe4?'
p6307
tp6308
bg5
(g6
g7
Ntp6309
Rp6310
(dp6311
g11
g5
(g12
g13
(dp6312
g142
F-1.0
sg98
F1.0
stp6313
Rp6314
sg18
I-2553330628009308297
sbtp6315
Rp6316
sg147
g4
(F3.0
g5
(g6
g7
Ntp6317
Rp6318
(dp6319
g11
g5
(g12
g13
(dp6320
g58
F1.0
stp6321
Rp6322
sg18
I-8637397557623547456
sbtp6323
Rp6324
sg156
g4
(g157
(g89
S'"lxz\xa5,\xc7\xbf'
p6325
tp6326
Rp6327
g162
tp6328
Rp6329
sbag5
(g74
g7
Ntp6330
Rp6331
(dp6332
g78
g4
(g79
(g80
(I0
tp6333
g82
tp6334
Rp6335
(I1
(I1
tp6336
g89
I00
S's\xc9\xdb\x8b\x14<\xc8>'
p6337
tp6338
bg95
tp6339
Rp6340
sg103
g4
(F240.0
g5
(g6
g7
Ntp6341
Rp6342
(dp6343
g11
g5
(g12
g13
(dp6344
g58
F1.0
stp6345
Rp6346
sg18
I-8637397557623547456
sbtp6347
Rp6348
sg112
I103
sg113
g4
(F5.0
g5
(g6
g7
Ntp6349
Rp6350
(dp6351
g11
g5
(g12
g13
(dp6352
g58
F1.0
stp6353
Rp6354
sg18
I-8637397557623547456
sbtp6355
Rp6356
sg122
g4
(F4.5
g5
(g6
g7
Ntp6357
Rp6358
(dp6359
g11
g5
(g12
g13
(dp6360
g127
F1.0
stp6361
Rp6362
sg18
I-4606935264605141194
sbtp6363
Rp6364
sg132
g4
(g79
(g80
(I0
tp6365
g82
tp6366
Rp6367
(I1
(tg89
I00
S'%\x06\x81\x95C\x8b\xe4?'
p6368
tp6369
bg5
(g6
g7
Ntp6370
Rp6371
(dp6372
g11
g5
(g12
g13
(dp6373
g142
F-1.0
sg98
F1.0
stp6374
Rp6375
sg18
I-2553330628009308297
sbtp6376
Rp6377
sg147
g4
(F3.0
g5
(g6
g7
Ntp6378
Rp6379
(dp6380
g11
g5
(g12
g13
(dp6381
g58
F1.0
stp6382
Rp6383
sg18
I-8637397557623547456
sbtp6384
Rp6385
sg156
g4
(g157
(g89
S'%\x01jj\xd9Z\xc7\xbf'
p6386
tp6387
Rp6388
g162
tp6389
Rp6390
sbag5
(g74
g7
Ntp6391
Rp6392
(dp6393
g78
g4
(g79
(g80
(I0
tp6394
g82
tp6395
Rp6396
(I1
(I1
tp6397
g89
I00
S's\xc9\xdb\x8b\x14<\xc8>'
p6398
tp6399
bg95
tp6400
Rp6401
sg103
g4
(F240.0
g5
(g6
g7
Ntp6402
Rp6403
(dp6404
g11
g5
(g12
g13
(dp6405
g58
F1.0
stp6406
Rp6407
sg18
I-8637397557623547456
sbtp6408
Rp6409
sg112
I104
sg113
g4
(F5.0
g5
(g6
g7
Ntp6410
Rp6411
(dp6412
g11
g5
(g12
g13
(dp6413
g58
F1.0
stp6414
Rp6415
sg18
I-8637397557623547456
sbtp6416
Rp6417
sg122
g4
(F4.5
g5
(g6
g7
Ntp6418
Rp6419
(dp6420
g11
g5
(g12
g13
(dp6421
g127
F1.0
stp6422
Rp6423
sg18
I-4606935264605141194
sbtp6424
Rp6425
sg132
g4
(g79
(g80
(I0
tp6426
g82
tp6427
Rp6428
(I1
(tg89
I00
S'%\x06\x81\x95C\x8b\xe4?'
p6429
tp6430
bg5
(g6
g7
Ntp6431
Rp6432
(dp6433
g11
g5
(g12
g13
(dp6434
g142
F-1.0
sg98
F1.0
stp6435
Rp6436
sg18
I-2553330628009308297
sbtp6437
Rp6438
sg147
g4
(F3.0
g5
(g6
g7
Ntp6439
Rp6440
(dp6441
g11
g5
(g12
g13
(dp6442
g58
F1.0
stp6443
Rp6444
sg18
I-8637397557623547456
sbtp6445
Rp6446
sg156
g4
(g157
(g89
S'\x18\xcf\xa0\xa1\x7f\x82\xc7\xbf'
p6447
tp6448
Rp6449
g162
tp6450
Rp6451
sbasS'jacket_temperature'
p6452
NsS'filter_period_end_time'
p6453
NsS'syringe_concentration'
p6454
(dp6455
S'ligand'
p6456
g4
(F0.642
g5
(g6
g7
Ntp6457
Rp6458
(dp6459
g11
g5
(g12
g13
(dp6460
g142
F-1.0
sg98
F1.0
stp6461
Rp6462
sg18
I-2553330628009308297
sbtp6463
Rp6464
ssS'heat'
p6465
(lp6466
sS'data_filename'
p6467
S'/home/tnguye46/bayesian_itc/ABRF_MIRG02/3.dummy_itc_files/4_VP-ITC.itc'
p6468
sS'stir_speed'
p6469
NsS'data_source'
p6470
g6468
sS'cell_concentration'
p6471
(dp6472
S'macromolecule'
p6473
g4
(F0.023
g5
(g6
g7
Ntp6474
Rp6475
(dp6476
g11
g5
(g12
g13
(dp6477
g142
F-1.0
sg98
F1.0
stp6478
Rp6479
sg18
I-2553330628009308297
sbtp6480
Rp6481
ssS'name'
p6482
S'4_VP-ITC'
p6483
sS'cell_temperature'
p6484
g4
(g79
(g80
(I0
tp6485
g82
tp6486
Rp6487
(I1
(I104
tp6488
g89
I00
S'fffff\xa2r@fffff\xa2r@fffff\xa2r@fffff\xa2r@fffff\xa2r@fffff\xa2r@fffff\xa2r@fffff\xa2r@fffff\xa2r@fffff\xa2r@fffff\xa2r@fffff\xa2r@fffff\xa2r@fffff\xa2r@fffff\xa2r@fffff\xa2r@fffff\xa2r@fffff\xa2r@fffff\xa2r@fffff\xa2r@fffff\xa2r@fffff\xa2r@fffff\xa2r@fffff\xa2r@fffff\xa2r@fffff\xa2r@fffff\xa2r@fffff\xa2r@fffff\xa2r@fffff\xa2r@fffff\xa2r@fffff\xa2r@fffff\xa2r@fffff\xa2r@fffff\xa2r@fffff\xa2r@fffff\xa2r@fffff\xa2r@fffff\xa2r@fffff\xa2r@fffff\xa2r@fffff\xa2r@fffff\xa2r@fffff\xa2r@fffff\xa2r@fffff\xa2r@fffff\xa2r@fffff\xa2r@fffff\xa2r@fffff\xa2r@fffff\xa2r@fffff\xa2r@fffff\xa2r@fffff\xa2r@fffff\xa2r@fffff\xa2r@fffff\xa2r@fffff\xa2r@fffff\xa2r@fffff\xa2r@fffff\xa2r@fffff\xa2r@fffff\xa2r@fffff\xa2r@fffff\xa2r@fffff\xa2r@fffff\xa2r@fffff\xa2r@fffff\xa2r@fffff\xa2r@fffff\xa2r@fffff\xa2r@fffff\xa2r@fffff\xa2r@fffff\xa2r@fffff\xa2r@fffff\xa2r@fffff\xa2r@fffff\xa2r@fffff\xa2r@fffff\xa2r@fffff\xa2r@fffff\xa2r@fffff\xa2r@fffff\xa2r@fffff\xa2r@fffff\xa2r@fffff\xa2r@fffff\xa2r@fffff\xa2r@fffff\xa2r@fffff\xa2r@fffff\xa2r@fffff\xa2r@fffff\xa2r@fffff\xa2r@fffff\xa2r@fffff\xa2r@fffff\xa2r@fffff\xa2r@fffff\xa2r@fffff\xa2r@fffff\xa2r@fffff\xa2r@'
p6489
tp6490
bg5
(g6
g7
Ntp6491
Rp6492
(dp6493
g11
g5
(g12
g13
(dp6494
g15
F1.0
stp6495
Rp6496
sg18
I6369073192305681123
sbtp6497
Rp6498
sS'equilibration_time'
p6499
g4
(I180
g5
(g6
g7
Ntp6500
Rp6501
(dp6502
g11
g5
(g12
g13
(dp6503
g58
F1.0
stp6504
Rp6505
sg18
I-8637397557623547456
sbtp6506
Rp6507
sS'time'
p6508
(lp6509
s.